###############################################################################
#
# IAR ELF Linker V7.30.4.8167/W32 for ARM                 30/Nov/2017  09:59:32
# Copyright 2007-2014 IAR Systems AB.
#
#    Output file  =  
#        E:\MiCO_B_v3.2.3-1\Projects\MW3xx\demo\EWARM\MK3031\Exe\COM.MXCHIP.BASIC.out
#    Map file     =  
#        E:\MiCO_B_v3.2.3-1\Projects\MW3xx\demo\EWARM\MK3031\List\COM.MXCHIP.BASIC.map
#    Command line =  
#        E:\MiCO_B_v3.2.3-1\Projects\MW3xx\demo\EWARM\MK3031\Obj\AESUtils.o
#        E:\MiCO_B_v3.2.3-1\Projects\MW3xx\demo\EWARM\MK3031\Obj\airkiss_discovery.o
#        E:\MiCO_B_v3.2.3-1\Projects\MW3xx\demo\EWARM\MK3031\Obj\appmainmsgqueue.o
#        E:\MiCO_B_v3.2.3-1\Projects\MW3xx\demo\EWARM\MK3031\Obj\arraylist.o
#        E:\MiCO_B_v3.2.3-1\Projects\MW3xx\demo\EWARM\MK3031\Obj\AsciiLib.o
#        E:\MiCO_B_v3.2.3-1\Projects\MW3xx\demo\EWARM\MK3031\Obj\base64.o
#        E:\MiCO_B_v3.2.3-1\Projects\MW3xx\demo\EWARM\MK3031\Obj\button.o
#        E:\MiCO_B_v3.2.3-1\Projects\MW3xx\demo\EWARM\MK3031\Obj\CheckSumUtils.o
#        E:\MiCO_B_v3.2.3-1\Projects\MW3xx\demo\EWARM\MK3031\Obj\cJSON.o
#        E:\MiCO_B_v3.2.3-1\Projects\MW3xx\demo\EWARM\MK3031\Obj\config_server.o
#        E:\MiCO_B_v3.2.3-1\Projects\MW3xx\demo\EWARM\MK3031\Obj\config_server_menu.o
#        E:\MiCO_B_v3.2.3-1\Projects\MW3xx\demo\EWARM\MK3031\Obj\devicemanager.o
#        E:\MiCO_B_v3.2.3-1\Projects\MW3xx\demo\EWARM\MK3031\Obj\hsb2rgb_led.o
#        E:\MiCO_B_v3.2.3-1\Projects\MW3xx\demo\EWARM\MK3031\Obj\http-strings.o
#        E:\MiCO_B_v3.2.3-1\Projects\MW3xx\demo\EWARM\MK3031\Obj\http_parse.o
#        E:\MiCO_B_v3.2.3-1\Projects\MW3xx\demo\EWARM\MK3031\Obj\httpd.o
#        E:\MiCO_B_v3.2.3-1\Projects\MW3xx\demo\EWARM\MK3031\Obj\httpd_handle.o
#        E:\MiCO_B_v3.2.3-1\Projects\MW3xx\demo\EWARM\MK3031\Obj\httpd_ssi.o
#        E:\MiCO_B_v3.2.3-1\Projects\MW3xx\demo\EWARM\MK3031\Obj\httpd_sys.o
#        E:\MiCO_B_v3.2.3-1\Projects\MW3xx\demo\EWARM\MK3031\Obj\httpd_wsgi.o
#        E:\MiCO_B_v3.2.3-1\Projects\MW3xx\demo\EWARM\MK3031\Obj\HTTPUtils.o
#        E:\MiCO_B_v3.2.3-1\Projects\MW3xx\demo\EWARM\MK3031\Obj\json_object.o
#        E:\MiCO_B_v3.2.3-1\Projects\MW3xx\demo\EWARM\MK3031\Obj\json_tokener.o
#        E:\MiCO_B_v3.2.3-1\Projects\MW3xx\demo\EWARM\MK3031\Obj\json_util.o
#        E:\MiCO_B_v3.2.3-1\libraries\daemons\homekit_server\Lib_HomeKit_Server.Cortex-M4F.IAR.release.a
#        E:\MiCO_B_v3.2.3-1\MiCO\system\easylink\MFi_WAC\Lib_MFi_WAC.Cortex-M4F.IAR.release.a
#        E:\MiCO_B_v3.2.3-1\MiCO\security\Sodium\Lib_Sodium.IAR.release.a
#        E:\MiCO_B_v3.2.3-1\MiCO\security\SRP_6a\Lib_SRP6a.IAR.release.a
#        E:\MiCO_B_v3.2.3-1\demos\application\xlinksrc\Lib_xlink_app_v34700.Cortex-M4.GCC.release.a
#        E:\MiCO_B_v3.2.3-1\MiCO\system\easylink\airkiss_discovery\lib_airkiss\libairkiss.a
#        E:\MiCO_B_v3.2.3-1\Projects\MW3xx\demo\EWARM\MK3031\Obj\linkagemanager.o
#        E:\MiCO_B_v3.2.3-1\Projects\MW3xx\demo\EWARM\MK3031\Obj\linkhash.o
#        E:\MiCO_B_v3.2.3-1\Projects\MW3xx\demo\EWARM\MK3031\Obj\mico_cli.o
#        E:\MiCO_B_v3.2.3-1\Projects\MW3xx\demo\EWARM\MK3031\Obj\mico_config.o
#        E:\MiCO_B_v3.2.3-1\Projects\MW3xx\demo\EWARM\MK3031\Obj\mico_mdns.o
#        E:\MiCO_B_v3.2.3-1\Projects\MW3xx\demo\EWARM\MK3031\Obj\mico_rtos.o
#        E:\MiCO_B_v3.2.3-1\Projects\MW3xx\demo\EWARM\MK3031\Obj\mico_rtos_common.o
#        E:\MiCO_B_v3.2.3-1\Projects\MW3xx\demo\EWARM\MK3031\Obj\mico_socket.o
#        E:\MiCO_B_v3.2.3-1\Projects\MW3xx\demo\EWARM\MK3031\Obj\mico_ssl.o
#        E:\MiCO_B_v3.2.3-1\Projects\MW3xx\demo\EWARM\MK3031\Obj\mico_system_init.o
#        E:\MiCO_B_v3.2.3-1\Projects\MW3xx\demo\EWARM\MK3031\Obj\mico_system_monitor.o
#        E:\MiCO_B_v3.2.3-1\Projects\MW3xx\demo\EWARM\MK3031\Obj\mico_system_notification.o
#        E:\MiCO_B_v3.2.3-1\Projects\MW3xx\demo\EWARM\MK3031\Obj\mico_system_para_storage.o
#        E:\MiCO_B_v3.2.3-1\Projects\MW3xx\demo\EWARM\MK3031\Obj\mico_system_power_daemon.o
#        E:\MiCO_B_v3.2.3-1\Projects\MW3xx\demo\EWARM\MK3031\Obj\mico_system_time.o
#        E:\MiCO_B_v3.2.3-1\Projects\MW3xx\demo\EWARM\MK3031\Obj\MICOAppEntrance.o
#        E:\MiCO_B_v3.2.3-1\Projects\MW3xx\demo\EWARM\MK3031\Obj\MICOBonjour.o
#        E:\MiCO_B_v3.2.3-1\libraries\drivers\MiCODriverMFiAuth\MiCODriverMFiAuth.a
#        E:\MiCO_B_v3.2.3-1\Projects\MW3xx\demo\EWARM\MK3031\Obj\MiCOKit_STmems.o
#        E:\MiCO_B_v3.2.3-1\Projects\MW3xx\demo\EWARM\MK3031\Obj\moc_api.o
#        E:\MiCO_B_v3.2.3-1\Projects\MW3xx\demo\EWARM\MK3031\Obj\moc_main.o
#        E:\MiCO_B_v3.2.3-1\Projects\MW3xx\demo\EWARM\MK3031\Obj\moc_platform_common.o
#        E:\MiCO_B_v3.2.3-1\Projects\MW3xx\demo\EWARM\MK3031\Obj\networkserver.o
#        E:\MiCO_B_v3.2.3-1\Projects\MW3xx\demo\EWARM\MK3031\Obj\oled.o
#        E:\MiCO_B_v3.2.3-1\Projects\MW3xx\demo\EWARM\MK3031\Obj\OTAupgrade.o
#        E:\MiCO_B_v3.2.3-1\Projects\MW3xx\demo\EWARM\MK3031\Obj\panelmanager.o
#        E:\MiCO_B_v3.2.3-1\Projects\MW3xx\demo\EWARM\MK3031\Obj\platform.o
#        E:\MiCO_B_v3.2.3-1\Projects\MW3xx\demo\EWARM\MK3031\Obj\platform_core.o
#        E:\MiCO_B_v3.2.3-1\Projects\MW3xx\demo\EWARM\MK3031\Obj\platform_nsclock.o
#        E:\MiCO_B_v3.2.3-1\Projects\MW3xx\demo\EWARM\MK3031\Obj\printbuf.o
#        E:\MiCO_B_v3.2.3-1\Projects\MW3xx\demo\EWARM\MK3031\Obj\qc_test.o
#        E:\MiCO_B_v3.2.3-1\Projects\MW3xx\demo\EWARM\MK3031\Obj\qc_test_cli.o
#        E:\MiCO_B_v3.2.3-1\Projects\MW3xx\demo\EWARM\MK3031\Obj\qc_test_gpio.o
#        E:\MiCO_B_v3.2.3-1\Projects\MW3xx\demo\EWARM\MK3031\Obj\qc_test_tcpip.o
#        E:\MiCO_B_v3.2.3-1\Projects\MW3xx\demo\EWARM\MK3031\Obj\RemoteTcpClient.o
#        E:\MiCO_B_v3.2.3-1\Projects\MW3xx\demo\EWARM\MK3031\Obj\Retarget.o
#        E:\MiCO_B_v3.2.3-1\Projects\MW3xx\demo\EWARM\MK3031\Obj\rgb_led.o
#        E:\MiCO_B_v3.2.3-1\Projects\MW3xx\demo\EWARM\MK3031\Obj\RingBufferUtils.o
#        E:\MiCO_B_v3.2.3-1\Projects\MW3xx\demo\EWARM\MK3031\Obj\rs485_comm.o
#        E:\MiCO_B_v3.2.3-1\Projects\MW3xx\demo\EWARM\MK3031\Obj\rs485_uart.o
#        E:\MiCO_B_v3.2.3-1\Projects\MW3xx\demo\EWARM\MK3031\Obj\rs485parse.o
#        E:\MiCO_B_v3.2.3-1\Projects\MW3xx\demo\EWARM\MK3031\Obj\rs485sensorparse.o
#        E:\MiCO_B_v3.2.3-1\Projects\MW3xx\demo\EWARM\MK3031\Obj\scenemanager.o
#        E:\MiCO_B_v3.2.3-1\Projects\MW3xx\demo\EWARM\MK3031\Obj\SecurityUtils.o
#        E:\MiCO_B_v3.2.3-1\Projects\MW3xx\demo\EWARM\MK3031\Obj\sensormanager.o
#        E:\MiCO_B_v3.2.3-1\Projects\MW3xx\demo\EWARM\MK3031\Obj\SHAUtils.o
#        E:\MiCO_B_v3.2.3-1\Projects\MW3xx\demo\EWARM\MK3031\Obj\sntp.o
#        E:\MiCO_B_v3.2.3-1\Projects\MW3xx\demo\EWARM\MK3031\Obj\SocketUtils.o
#        E:\MiCO_B_v3.2.3-1\Projects\MW3xx\demo\EWARM\MK3031\Obj\SppProtocol.o
#        E:\MiCO_B_v3.2.3-1\Projects\MW3xx\demo\EWARM\MK3031\Obj\StringUtils.o
#        E:\MiCO_B_v3.2.3-1\Projects\MW3xx\demo\EWARM\MK3031\Obj\system_discovery.o
#        E:\MiCO_B_v3.2.3-1\Projects\MW3xx\demo\EWARM\MK3031\Obj\system_easylink.o
#        E:\MiCO_B_v3.2.3-1\Projects\MW3xx\demo\EWARM\MK3031\Obj\system_easylink_delegate.o
#        E:\MiCO_B_v3.2.3-1\Projects\MW3xx\demo\EWARM\MK3031\Obj\system_easylink_wac.o
#        E:\MiCO_B_v3.2.3-1\Projects\MW3xx\demo\EWARM\MK3031\Obj\system_misc.o
#        E:\MiCO_B_v3.2.3-1\Projects\MW3xx\demo\EWARM\MK3031\Obj\tftp_ota.o
#        E:\MiCO_B_v3.2.3-1\Projects\MW3xx\demo\EWARM\MK3031\Obj\tftpc.o
#        E:\MiCO_B_v3.2.3-1\Projects\MW3xx\demo\EWARM\MK3031\Obj\timer_task.o
#        E:\MiCO_B_v3.2.3-1\Projects\MW3xx\demo\EWARM\MK3031\Obj\timercontrol.o
#        E:\MiCO_B_v3.2.3-1\Projects\MW3xx\demo\EWARM\MK3031\Obj\timerctrl.o
#        E:\MiCO_B_v3.2.3-1\Projects\MW3xx\demo\EWARM\MK3031\Obj\timerinterexec.o
#        E:\MiCO_B_v3.2.3-1\Projects\MW3xx\demo\EWARM\MK3031\Obj\TimeUtils.o
#        E:\MiCO_B_v3.2.3-1\Projects\MW3xx\demo\EWARM\MK3031\Obj\TLVUtils.o
#        E:\MiCO_B_v3.2.3-1\Projects\MW3xx\demo\EWARM\MK3031\Obj\URLUtils.o
#        E:\MiCO_B_v3.2.3-1\Projects\MW3xx\demo\EWARM\MK3031\Obj\user_data_store.o
#        E:\MiCO_B_v3.2.3-1\Projects\MW3xx\demo\EWARM\MK3031\Obj\user_main.o
#        E:\MiCO_B_v3.2.3-1\Projects\MW3xx\demo\EWARM\MK3031\Obj\user_uart.o
#        E:\MiCO_B_v3.2.3-1\Projects\MW3xx\demo\EWARM\MK3031\Obj\wifi_led.o
#        E:\MiCO_B_v3.2.3-1\Projects\MW3xx\demo\EWARM\MK3031\Obj\xlink_config.o
#        E:\MiCO_B_v3.2.3-1\Projects\MW3xx\demo\EWARM\MK3031\Obj\xlink_DataPointProcess.o
#        E:\MiCO_B_v3.2.3-1\Projects\MW3xx\demo\EWARM\MK3031\Obj\xlink_demo.o
#        E:\MiCO_B_v3.2.3-1\Projects\MW3xx\demo\EWARM\MK3031\Obj\Xlink_PassThroughProtocol.o
#        E:\MiCO_B_v3.2.3-1\Projects\MW3xx\demo\EWARM\MK3031\Obj\Xlink_PassThroughResolve.o
#        E:\MiCO_B_v3.2.3-1\Projects\MW3xx\demo\EWARM\MK3031\Obj\xlink_ringbuf.o
#        E:\MiCO_B_v3.2.3-1\Projects\MW3xx\demo\EWARM\MK3031\Obj\xlinkHttp.o
#        E:\MiCO_B_v3.2.3-1\Projects\MW3xx\demo\EWARM\MK3031\Obj\zigbeeparse.o
#        -o
#        E:\MiCO_B_v3.2.3-1\Projects\MW3xx\demo\EWARM\MK3031\Exe\COM.MXCHIP.BASIC.out
#        --map
#        E:\MiCO_B_v3.2.3-1\Projects\MW3xx\demo\EWARM\MK3031\List\COM.MXCHIP.BASIC.map
#        --config
#        E:\MiCO_B_v3.2.3-1\Projects\MW3xx\demo\EWARM\..\..\..\..\Platform\MCU\MW3xx\interface\user_app.icf
#        --redirect malloc=_malloc --redirect free=_free --redirect
#        calloc=_calloc --redirect realloc=_realloc --semihosting
#        E:\dev\MiCO_B_v3.2.3\demos\application\xlinksrc\Lib_xlink_app_v34700.Cortex-M4.GCC.release.a
#        --entry moc_app_main --vfe --enable_stack_usage
#
###############################################################################

*******************************************************************************
*** MESSAGES
***

Warning[Lt009]: Inconsistent wchar_t size
          E:\MiCO_B_v3.2.3-1\Projects\MW3xx\demo\EWARM\MK3031\Obj\AESUtils.o
                    and 193 other objects have wchar_t size 16 bits
          xlink_system.o(Lib_xlink_app_v34700.Cortex-M4.GCC.release.a) and 9
                    other objects have wchar_t size 32 bits
Warning[Lo007]: [stack usage analysis] at least one function does not have
          stack usage information. Example: "XlinkSystemSetDeviceName". A
          complete list of such functions is in the map file.
Warning[Lo009]: [stack usage analysis] the program contains at least one
          indirect call. Example: from "moc_app_main". A complete list of such
          functions is in the map file.
Warning[Lo010]: [stack usage analysis] the program contains at least one
          instance of recursion for which  stack usage analysis has not been
          able to calculate a maximum stack depth. One function involved is
          "cJSON_Delete". A complete list of all recursion nests is in the map
          file.


*******************************************************************************
*** RUNTIME MODEL ATTRIBUTES
***

CppFlavor                     = *
__SystemLibrary               = DLib
__dlib_dynamic_initialization = normal


*******************************************************************************
*** PLACEMENT SUMMARY
***

"A1":  place at 0x1f064000 { section user_header_section };
"P1":  place in [from 0x1f064000 to 0x1f0a9000] { ro };
"A2":  place at start of [0x0011c000-0x00128000] { rw };
"P2":  place in [from 0x0011c000 to 0x00128000] { block heap_start };

  Section                 Kind        Address     Size  Object
  -------                 ----        -------     ----  ------
"A2":                                           0x2354
  rw-1                             0x0011c000    0x3fc  <Init block>
    .data                 inited   0x0011c000     0xc8  button.o [1]
    .data                 inited   0x0011c0c8      0xc  cJSON.o [1]
    .data                 inited   0x0011c0d4      0x4  json_object.o [1]
    .data                 inited   0x0011c0d8      0x4  json_object.o [1]
    .data                 inited   0x0011c0dc      0x4  json_tokener.o [1]
    .data                 inited   0x0011c0e0      0x4  mico_config.o [1]
    .data                 inited   0x0011c0e4      0x4  mico_config.o [1]
    .data                 inited   0x0011c0e8     0x20  mico_mdns.o [1]
    .data                 inited   0x0011c108     0x10  mico_rtos_common.o [1]
    .data                 inited   0x0011c118     0x40  xfiles.o [6]
    .data                 inited   0x0011c158     0x40  xfiles.o [6]
    .data                 inited   0x0011c198     0x40  xfiles.o [6]
    .data                 inited   0x0011c1d8     0x20  xfiles.o [6]
    .data.Xlink_TCP_ConnectPort
                          inited   0x0011c1f8      0x4  xlink_net.o [4]
    .data.dayOfMonth      inited   0x0011c1fc     0x30  xlink_system.o [4]
    .data.g_tcpConnectDelayTime
                          inited   0x0011c22c      0x4  xlink_net.o [4]
    .data.g_xlink_hostNameOrIp
                          inited   0x0011c230      0x4  xlink_net.o [4]
    __DLIB_PERTHREAD      inited   0x0011c234      0x4  errno.o [6]
    __DLIB_PERTHREAD      inited   0x0011c238     0x8c  rand.o [6]
    __DLIB_PERTHREAD      inited   0x0011c2c4      0x8  localtim.o [6]
    __DLIB_PERTHREAD      inited   0x0011c2cc     0x74  setlocale.o [6]
    __DLIB_PERTHREAD      inited   0x0011c340     0x2c  xttotm.o [6]
    __DLIB_PERTHREAD      inited   0x0011c36c     0x88  localeconv.o [6]
    __DLIB_PERTHREAD      inited   0x0011c3f4      0x4  xisdst.o [6]
    __DLIB_PERTHREAD      inited   0x0011c3f8      0x4  xisdstData.o [6]
  .bss                    zero     0x0011c400      0xc  mico_system_time.o [1]
  .bss                    zero     0x0011c40c     0x1c  config_server.o [1]
  .bss                    zero     0x0011c428     0x14  platform_nsclock.o [1]
  .bss                    zero     0x0011c43c      0x8  airkiss_discovery.o [1]
  .bss                    zero     0x0011c444     0x20  appmainmsgqueue.o [1]
  .bss                    zero     0x0011c464     0x58  mico_cli.o [1]
  .bss                    zero     0x0011c4bc     0x80  mico_mdns.o [1]
  .bss                    zero     0x0011c53c      0x4  mico_rtos.o [1]
  .bss                    zero     0x0011c540     0x10  mico_rtos_common.o [1]
  .bss                    zero     0x0011c550     0x28  mico_system_monitor.o [1]
  .bss                    zero     0x0011c578     0x50  mico_system_notification.o [1]
  .bss                    zero     0x0011c5c8      0x8  mico_system_para_storage.o [1]
  .bss                    zero     0x0011c5d0     0x1c  mico_system_power_daemon.o [1]
  .bss                    zero     0x0011c5ec      0x4  MICOAppEntrance.o [1]
  .bss                    zero     0x0011c5f0      0x8  moc_main.o [1]
  .bss                    zero     0x0011c5f8      0x4  OTAupgrade.o [1]
  .bss                    zero     0x0011c5fc      0x4  OTAupgrade.o [1]
  .bss                    zero     0x0011c600     0x80  OTAupgrade.o [1]
  .bss                    zero     0x0011c680    0x214  rs485_uart.o [1]
  .bss                    zero     0x0011c894      0xc  rs485_uart.o [1]
  .bss                    zero     0x0011c8a0      0x4  rs485_uart.o [1]
  .bss                    zero     0x0011c8a4     0x15  rs485sensorparse.o [1]
  .bss                    zero     0x0011c8b9      0x2  xlink_demo.o [1]
  .bss                    zero     0x0011c8bb      0x1  printbuf.o [1]
  .bss                    zero     0x0011c8bc     0x10  sensormanager.o [1]
  .bss                    zero     0x0011c8cc      0x4  sensormanager.o [1]
  .bss                    zero     0x0011c8d0     0x14  system_easylink.o [1]
  .bss                    zero     0x0011c8e4     0x10  system_easylink_delegate.o [1]
  .bss                    zero     0x0011c8f4      0x4  tftp_ota.o [1]
  .bss                    zero     0x0011c8f8      0x8  timer_task.o [1]
  .bss                    zero     0x0011c900     0x5c  timerctrl.o [1]
  .bss                    zero     0x0011c95c      0x4  user_data_store.o [1]
  .bss                    zero     0x0011c960     0xb4  user_main.o [1]
  .bss                    zero     0x0011ca14    0x410  user_uart.o [1]
  .bss                    zero     0x0011ce24    0x40c  user_uart.o [1]
  .bss                    zero     0x0011d230      0x4  xlink_config.o [1]
  .bss                    zero     0x0011d234    0x4b0  xlink_DataPointProcess.o [1]
  .bss                    zero     0x0011d6e4     0x10  xlink_demo.o [1]
  .bss                    zero     0x0011d6f4     0x70  xlink_demo.o [1]
  .bss                    zero     0x0011d764      0x8  xlink_demo.o [1]
  .bss                    zero     0x0011d76c    0x138  xlink_demo.o [1]
  .bss                    zero     0x0011d8a4      0x4  xlink_demo.o [1]
  .bss                    zero     0x0011d8a8     0x25  xlink_demo.o [1]
  .bss.m_currentSystemTime
                          zero     0x0011d8ce      0xa  xlink_system.o [4]
  .bss                    zero     0x0011d8d8      0x8  xlinkHttp.o [1]
  .bss                    zero     0x0011d8e0      0x8  zigbeeparse.o [1]
  .bss                    zero     0x0011d8e8     0x50  xfiles.o [6]
  .bss                    zero     0x0011d938     0x50  xfiles.o [6]
  .bss                    zero     0x0011d988     0x80  XShHandles.o [6]
  .bss.addr.7801          zero     0x0011da08     0x10  xlink_net.o [4]
  .bss.g_RecvDataBuffer   zero     0x0011da18      0x4  xlink_net.o [4]
  .bss.g_maxfd            zero     0x0011da1c      0x4  xlink_net.o [4]
  .bss.g_xlink_client     zero     0x0011da20    0x380  xlink_client.o [4]
  .bss.g_xlink_info       zero     0x0011dda0     0x80  xlink_data.o [4]
  .bss.g_xlink_proTest    zero     0x0011de20     0x10  xlink_data.o [4]
  .bss.g_xlink_user_config
                          zero     0x0011de30      0x4  xlink_data.o [4]
  .bss.last_check_heartbeat
                          zero     0x0011de34      0x4  xlink_net.o [4]
  .bss.m_fd_set           zero     0x0011de38      0x8  xlink_net.o [4]
  .bss.m_old_getTime      zero     0x0011de40      0x4  xlink_system.o [4]
  .bss.m_tcp_client       zero     0x0011de44      0x8  xlink_tcp_client.o [4]
  .bss.tcp_timer          zero     0x0011de4c      0x8  xlink_tcp_client.o [4]
  .bss.timeoutal.7819     zero     0x0011de54      0x8  xlink_net.o [4]
  .bss.xlink_event        zero     0x0011de5c      0x4  xlink_net.o [4]
  .bss.xsdk_flash         zero     0x0011de60     0xac  xsdk_config.o [4]
  .bss                    zero     0x0011df0c      0x4  Xlink_PassThroughResolve.o [1]
  .bss.temptime.7741      zero     0x0011df10      0xa  xlink_process_tcp_data.o [4]
  .bss                    zero     0x0011df1a      0x1  rs485_comm.o [1]
  .bss.g_isWork           zero     0x0011df1b      0x1  xlink_net.o [4]
  .bss.g_xlink_udp_scan_en
                          zero     0x0011df1c      0x1  xlink_process_udp_data.o [4]
  .bss.isSystemInited     zero     0x0011df1d      0x1  xlink_system.o [4]
  .bss.m_systemFlag       zero     0x0011df1e      0x1  xlink_system.o [4]
  .bss.udpPipeIndex       zero     0x0011df1f      0x1  xlink_process_udp_data.o [4]
  .bss.xlink_recvDtatBufer.7737
                          zero     0x0011df20    0x432  xlink_net.o [4]
                                 - 0x0011e352   0x2352

"P2":                                              0x4
  heap_start                       0x0011e354      0x4  <Block>
    .ram_data_end         zero     0x0011e354      0x4  moc_main.o [1]
                                 - 0x0011e358      0x4

"A1":                                             0x74
  user_header_section     const    0x1f064000     0x74  moc_main.o [1]
                                 - 0x1f064074     0x74

"P1":                                          0x34e6a
  .text                   ro code  0x1f064074   0x46ec  devicemanager.o [1]
  .text                   ro code  0x1f068760    0x868  MICOAppEntrance.o [1]
  .text                   ro code  0x1f068fc8    0x128  mico_rtos.o [1]
  .text                   ro code  0x1f0690f0     0x18  strrchr.o [6]
  .text                   ro code  0x1f069108     0x24  printf.o [6]
  .text                   ro code  0x1f06912c    0x49c  user_uart.o [1]
  .text                   ro code  0x1f0695c8     0x76  ABImemcpy_unaligned.o [9]
  .rodata.str1.1          const    0x1f06963e     0x4e  xsdk_config.o [4]
  .text                   ro code  0x1f06968c     0x62  memcmp_unaligned.o [9]
  .rodata.__FUNCTION__.7993
                          const    0x1f0696ee     0x22  xlink_process_udp_data.o [4]
  .text                   ro code  0x1f069710      0x6  ABImemclr4.o [9]
  .text                   ro code  0x1f069716     0x22  zero_init3.o [9]
  .text                   ro code  0x1f069738    0x6a0  timerinterexec.o [1]
  .text                   ro code  0x1f069dd8   0x1258  mico_system_para_storage.o [1]
  .text                   ro code  0x1f06b030    0x39c  mico_rtos_common.o [1]
  .text                   ro code  0x1f06b3cc      0x6  ABImemclr.o [9]
  .text                   ro code  0x1f06b3d2     0x1e  xsscin.o [6]
  .text                   ro code  0x1f06b3f0    0x2f4  user_data_store.o [1]
  .text                   ro code  0x1f06b6e4   0x2968  timercontrol.o [1]
  .text                   ro code  0x1f06e04c    0x198  xstoul.o [6]
  .text                   ro code  0x1f06e1e4    0x8ac  user_main.o [1]
  .text                   ro code  0x1f06ea90   0x27a0  zigbeeparse.o [1]
  .text                   ro code  0x1f071230   0x2500  sensormanager.o [1]
  .text                   ro code  0x1f073730     0x2a  strncmp.o [6]
  .text                   ro code  0x1f07375a     0x88  xstol.o [6]
  .rodata.__FUNCTION__.7849
                          const    0x1f0737e2     0x1a  xlink_process_tcp_data.o [4]
  .text                   ro code  0x1f0737fc    0x374  wifi_led.o [1]
  .text                   ro code  0x1f073b70     0x34  sprintf.o [6]
  .text                   ro code  0x1f073ba4    0x490  config_server_menu.o [1]
  .text                   ro code  0x1f074034    0x5f0  json_object.o [1]
  .text                   ro code  0x1f074624     0x42  strcmp_unaligned.o [9]
  .rodata.__FUNCTION__.7864
                          const    0x1f074666     0x1a  xlink_process_tcp_data.o [4]
  .text                   ro code  0x1f074680     0x6c  strncpy_unaligned.o [9]
  .text                   ro code  0x1f0746ec   0x1160  xlink_demo.o [1]
  .text                   ro code  0x1f07584c     0x40  Retarget.o [1]
  .text                   ro code  0x1f07588c    0x66c  mico_system_init.o [1]
  .text                   ro code  0x1f075ef8    0x3b0  MICOBonjour.o [1]
  .text                   ro code  0x1f0762a8    0xe08  system_misc.o [1]
  .text                   ro code  0x1f0770b0    0x2f4  moc_api.o [1]
  .text                   ro code  0x1f0773a4    0xd92  xprintffull_nomb.o [6]
  .text                   ro code  0x1f078136     0x1a  xsnprout.o [6]
  .text                   ro code  0x1f078150     0x18  RingBufferUtils.o [1]
  .text                   ro code  0x1f078168     0x32  ABImemset48.o [9]
  .rodata.__FUNCTION__.7762
                          const    0x1f07819a     0x16  xlink_process_tcp_data.o [4]
  .text                   ro code  0x1f0781b0     0x36  strlen.o [9]
  .rodata.__FUNCTION__.8013
                          const    0x1f0781e6     0x16  xlink_process_udp_data.o [4]
  .text                   ro code  0x1f0781fc   0x12c0  appmainmsgqueue.o [1]
  .text                   ro code  0x1f0794bc    0x1b4  rs485_comm.o [1]
  .text                   ro code  0x1f079670     0x78  CheckSumUtils.o [1]
  .text                   ro code  0x1f0796e8     0x44  strcpy_unaligned.o [9]
  .text                   ro code  0x1f07972c     0x66  ABImemset.o [9]
  .rodata.__FUNCTION__.7857
                          const    0x1f079792      0xe  xlink_net.o [4]
  .text                   ro code  0x1f0797a0    0xb88  timer_task.o [1]
  .text                   ro code  0x1f07a328     0x20  srand.o [6]
  .text                   ro code  0x1f07a348     0xe0  rand.o [6]
  .text                   ro code  0x1f07a428     0x30  I32ToDbl.o [8]
  .text                   ro code  0x1f07a458    0xedc  cJSON.o [1]
  .text                   ro code  0x1f07b334     0x28  isxxx.o [6]
  .text                   ro code  0x1f07b35c     0x14  tolower.o [6]
  .text                   ro code  0x1f07b370     0x58  memchr.o [9]
  .text                   ro code  0x1f07b3c8      0xc  errno.o [6]
  .text                   ro code  0x1f07b3d4    0x584  timerctrl.o [1]
  .text                   ro code  0x1f07b958    0xa40  rs485sensorparse.o [1]
  .text                   ro code  0x1f07c398    0x3b8  mico_system_power_daemon.o [1]
  .text                   ro code  0x1f07c750    0x9b4  rs485parse.o [1]
  .text                   ro code  0x1f07d104   0x1888  networkserver.o [1]
  .text                   ro code  0x1f07e98c   0x3944  linkagemanager.o [1]
  .text                   ro code  0x1f0822d0    0x1a2  DblMul.o [8]
  .rodata.str1.1          const    0x1f082472      0xa  xlink_data.o [4]
  .text                   ro code  0x1f08247c     0x90  DblToFlt.o [8]
  .text                   ro code  0x1f08250c    0x146  printbuf.o [1]
  .text                   ro code  0x1f082652      0xa  xsprout.o [6]
  .text                   ro code  0x1f08265c    0x34c  linkhash.o [1]
  .text                   ro code  0x1f0829a8     0x18  strdup.o [6]
  .text                   ro code  0x1f0829c0     0x20  DblCmpEq.o [8]
  .text                   ro code  0x1f0829e0     0xe4  json_util.o [1]
  .text                   ro code  0x1f082ac4     0x58  DblToI32.o [8]
  .text                   ro code  0x1f082b1c     0xd4  arraylist.o [1]
  .text                   ro code  0x1f082bf0    0x3d4  Xlink_PassThroughResolve.o [1]
  .text                   ro code  0x1f082fc4     0x24  xlink_DataPointProcess.o [1]
  .text                   ro code  0x1f082fe8     0xd0  mktime.o [6]
  .text                   ro code  0x1f0830b8     0x5c  mico_system_time.o [1]
  .text                   ro code  0x1f083114    0x3f8  OTAupgrade.o [1]
  .text                   ro code  0x1f08350c    0x78c  xlinkHttp.o [1]
  .text                   ro code  0x1f083c98     0xcc  xlink_config.o [1]
  .text.XlinkSystemInit   ro code  0x1f083d64     0xc0  xlink_system.o [4]
  .text.XlinkGetServerTime
                          ro code  0x1f083e24     0x14  xlink_system.o [4]
  .text.XlinkPorcess_UDP_Enable
                          ro code  0x1f083e38      0xc  xlink_process_udp_data.o [4]
  .text.xlink_tcp_send_upgrade
                          ro code  0x1f083e44     0xa0  xlink_tcp_client.o [4]
  .text.xsdk_write_config
                          ro code  0x1f083ee4     0xdc  xsdk_config.o [4]
  .text.xsdk_config_save  ro code  0x1f083fc0    0x148  xsdk_config.o [4]
  .text.XlinkSystemLoop   ro code  0x1f084108     0xf8  xlink_system.o [4]
  .text.XlinkGetSystemTime
                          ro code  0x1f084200     0x38  xlink_system.o [4]
  .text.XlinkSystemTcpLoop
                          ro code  0x1f084238     0x20  xlink_system.o [4]
  .text                   ro code  0x1f084258   0x1b8c  system_easylink.o [1]
  .text                   ro code  0x1f085de4    0x2e4  mico_system_monitor.o [1]
  .text                   ro code  0x1f0860c8   0x104c  mico_cli.o [1]
  .text                   ro code  0x1f087114    0x390  system_discovery.o [1]
  .text                   ro code  0x1f0874a4   0x1be0  config_server.o [1]
  .text                   ro code  0x1f089084    0x4e8  airkiss_discovery.o [1]
  .text                   ro code  0x1f08956c     0x44  snprintf.o [6]
  .text                   ro code  0x1f0895b0    0x9d6  StringUtils.o [1]
  .rodata.__FUNCTION__.7779
                          const    0x1f089f86     0x19  xlink_net.o [4]
  .rodata.__FUNCTION__.7793
                          const    0x1f089f9f     0x19  xlink_process_tcp_data.o [4]
  .text                   ro code  0x1f089fb8    0xfe8  mico_mdns.o [1]
  .text                   ro code  0x1f08afa0    0x114  platform.o [1]
  .text                   ro code  0x1f08b0b4    0x3c8  mico_system_notification.o [1]
  .text                   ro code  0x1f08b47c     0x16  strchr.o [9]
  .rodata.__FUNCTION__.7936
                          const    0x1f08b492     0x19  xlink_process_udp_data.o [4]
  .rodata.__FUNCTION__.7811
                          const    0x1f08b4ab     0x15  xlink_client.o [4]
  .text                   ro code  0x1f08b4c0     0xee  I64DivMod.o [9]
  .text                   ro code  0x1f08b5ae     0x42  xdnorm.o [8]
  .text                   ro code  0x1f08b5f0     0x2e  DblCmpLe.o [8]
  .rodata.__FUNCTION__.7540
                          const    0x1f08b61e     0x11  xsdk_config.o [4]
  .rodata.__FUNCTION__.7748
                          const    0x1f08b62f     0x11  xlink_net.o [4]
  .text                   ro code  0x1f08b640     0x2e  DblCmpGe.o [8]
  .rodata.__FUNCTION__.7789
                          const    0x1f08b66e     0x11  xlink_tcp_client.o [4]
  .rodata.str1.1          const    0x1f08b67f      0x5  xlink_md5.o [4]
  .text                   ro code  0x1f08b684    0x118  xdscale.o [8]
  .text                   ro code  0x1f08b79c    0x180  DblSub.o [8]
  .text                   ro code  0x1f08b91c    0x246  DblDiv.o [8]
  .text                   ro code  0x1f08bb64     0x6c  localeconv.o [6]
  .text                   ro code  0x1f08bbd0      0xe  div.o [6]
  .text                   ro code  0x1f08bbe0    0x894  rs485_uart.o [1]
  .text                   ro code  0x1f08c474     0xb6  localtim.o [6]
  .text                   ro code  0x1f08c52a      0x2  xtls.o [6]
  .text                   ro code  0x1f08c52c     0xe8  DblAdd.o [8]
  .text                   ro code  0x1f08c618    0x8c0  pow.o [8]
  .text                   ro code  0x1f08ced8     0x6e  floor.o [8]
  .text                   ro code  0x1f08cf48     0x44  setlocale.o [6]
  .text                   ro code  0x1f08cf8c     0x16  xlocale_c.o [6]
  .text                   ro code  0x1f08cfa2     0x14  xlocale_c.o [6]
  .text                   ro code  0x1f08cfb6      0xc  xlocale_c.o [6]
  .text.XlinkReSetSDK     ro code  0x1f08cfc4     0x40  xsdk_config.o [4]
  .text                   ro code  0x1f08d004     0x3c  vsnprint.o [6]
  .text                   ro code  0x1f08d040     0x2c  vsprintf.o [6]
  .text                   ro code  0x1f08d06c     0x18  vprintf.o [6]
  .text                   ro code  0x1f08d084      0x4  exit.o [6]
  .text                   ro code  0x1f08d088     0x24  sscanf.o [6]
  .text.XlinkSendTcpPipe2_cb
                          ro code  0x1f08d0ac     0xcc  xlink_tcp_client.o [4]
  .text.XlinkSendTcpPipe_cb
                          ro code  0x1f08d178     0xcc  xlink_tcp_client.o [4]
  .text.XlinkSendUdpPipe_cb
                          ro code  0x1f08d244     0xd0  xlink_client.o [4]
  .text                   ro code  0x1f08d314    0x188  xttotm.o [6]
  .text                   ro code  0x1f08d49c     0x2c  strstr.o [6]
  .text.xlinkHttpMd5Init  ro code  0x1f08d4c8     0x2c  xlink_md5.o [4]
  .text                   ro code  0x1f08d4f4    0x10c  mico_socket.o [1]
  .text.XlinkHttpM5dFinalString
                          ro code  0x1f08d600     0x2c  xlink_md5.o [4]
  .text.XlinkHttpMd5Update
                          ro code  0x1f08d62c      0x4  xlink_md5.o [4]
  .text.xlinkGetHostByName
                          ro code  0x1f08d630     0xac  xlink_net.o [4]
  .text                   ro code  0x1f08d6dc     0x3c  puts.o [6]
  .text.xsdk_config_init  ro code  0x1f08d718    0x1fc  xsdk_config.o [4]
  .text.XlinkSdkDataInit  ro code  0x1f08d914     0x90  xlink_data.o [4]
  .text.XlinnkClientInit  ro code  0x1f08d9a4     0x24  xlink_client.o [4]
  .text.XlinkNetInit      ro code  0x1f08d9c8     0x24  xlink_net.o [4]
  .text.XlinkTcpSendData  ro code  0x1f08d9ec     0x50  xlink_tcp_client.o [4]
  .text                   ro code  0x1f08da3c     0x14  memset.o [6]
  .text                   ro code  0x1f08da50      0xc  memcpy.o [6]
  .text.xlink_net_loop    ro code  0x1f08da5c    0x294  xlink_net.o [4]
  .text.xlink_net_loop_Domain_name
                          ro code  0x1f08dcf0    0x310  xlink_net.o [4]
  .text                   ro code  0x1f08e000     0x96  system_easylink_delegate.o [1]
  .text                   ro code  0x1f08e098    0x358  SocketUtils.o [1]
  .text                   ro code  0x1f08e3f0    0xf34  json_tokener.o [1]
  .text                   ro code  0x1f08f324    0x738  tftpc.o [1]
  .text                   ro code  0x1f08fa5c    0xa3c  tftp_ota.o [1]
  .text                   ro code  0x1f090498     0x46  strcasecmp.o [6]
  .text                   ro code  0x1f0904e0   0x15c0  HTTPUtils.o [1]
  .text.XlinkSystemGetDeviceID
                          ro code  0x1f091aa0     0x30  xlink_system.o [4]
  .text.airkiss_lan_recv  ro code  0x1f091ad0      0x4  airlink.o [7]
  .text.airkiss_lan_pack  ro code  0x1f091ad4     0x10  airlink.o [7]
  .text                   ro code  0x1f091ae4     0x16  strnlen.o [6]
  .text                   ro code  0x1f091afc     0xd0  button.o [1]
  .text                   ro code  0x1f091bcc      0x2  I64DivZer.o [9]
  .text                   ro code  0x1f091bce      0x4  moc_platform_common.o [1]
  .text                   ro code  0x1f091bd4      0xa  getzone.o [6]
  .text                   ro code  0x1f091bde     0x42  xgettime.o [6]
  .text                   ro code  0x1f091c20     0x7e  xdint.o [8]
  .text                   ro code  0x1f091ca0     0xb0  xlog.o [8]
  .text                   ro code  0x1f091d50    0x2c6  xexp.o [8]
  .text                   ro code  0x1f092018      0xe  cexit.o [9]
  .text                   ro code  0x1f092028    0xb84  xscanffull_nomb.o [6]
  .text.XlinkClientSendDataToAllOlineClient
                          ro code  0x1f092bac     0x40  xlink_client.o [4]
  .text.XlinkClientSendDataToAddr
                          ro code  0x1f092bec     0x34  xlink_client.o [4]
  .text                   ro code  0x1f092c20    0x134  xisdst.o [6]
  .text.XlinkMD5Final     ro code  0x1f092d54     0x6c  xlink_md5.o [4]
  .text.XlinkMD5Update    ro code  0x1f092dc0     0x88  xlink_md5.o [4]
  .text                   ro code  0x1f092e48      0x4  xsyslock_nop.o [6]
  .text                   ro code  0x1f092e4c     0x98  fputs.o [6]
  .text                   ro code  0x1f092ee4     0x56  fputc.o [6]
  .text.xlinkGetMd5       ro code  0x1f092f3c     0x48  xlink_md5.o [4]
  .text.xsdk_read_config  ro code  0x1f092f84     0xac  xsdk_config.o [4]
  .text.XlinkSystemSetDeviceName
                          ro code  0x1f093030     0x50  xlink_system.o [4]
  .text.XlinkClientCheckHeartbeat
                          ro code  0x1f093080     0x74  xlink_client.o [4]
  .text.xsdk_closeUDP     ro code  0x1f0930f4     0x18  xlink_net.o [4]
  .text.xsdk_closeTCP     ro code  0x1f09310c     0x58  xlink_net.o [4]
  .text.XlinkTcpLoop      ro code  0x1f093164    0x24c  xlink_tcp_client.o [4]
  .text.event_tcp_recv_data
                          ro code  0x1f0933b0    0x168  xlink_net.o [4]
  .text.event_udp_recv_data
                          ro code  0x1f093518     0x9c  xlink_net.o [4]
  .text.XlinkTcpInit      ro code  0x1f0935b4     0x20  xlink_tcp_client.o [4]
  .text                   ro code  0x1f0935d4     0x4e  strncasecmp.o [6]
  .text                   ro code  0x1f093624     0x78  ABImemmove_unaligned.o [9]
  .text                   ro code  0x1f09369c    0x16a  URLUtils.o [1]
  .text.__airkiss_lan_recv
                          ro code  0x1f093808     0x60  airlink.o [7]
  .text.__airkiss_lan_pack
                          ro code  0x1f093868    0x13c  airlink.o [7]
  .text                   ro code  0x1f0939a4     0xf6  platform_nsclock.o [1]
  .text                   ro code  0x1f093a9a     0x40  xdtest.o [8]
  .text                   ro code  0x1f093adc     0x58  xcloseall.o [6]
  .text                   ro code  0x1f093b34     0x14  exit.o [10]
  .text                   ro code  0x1f093b48     0xa4  xstoll.o [6]
  .text                   ro code  0x1f093bec    0x1b0  xstoull.o [6]
  .text                   ro code  0x1f093d9c    0x168  xstold.o [8]
  .text.XlinkClientSendToIndex
                          ro code  0x1f093f04     0x20  xlink_client.o [4]
  .text                   ro code  0x1f093f24    0x164  xgetdst.o [6]
  .text.XlinkMD5Transform
                          ro code  0x1f094088    0x694  xlink_md5.o [4]
  .text                   ro code  0x1f09471c     0xb6  xfwprep.o [6]
  .text                   ro code  0x1f0947d4     0xb0  fflush.o [6]
  .text.xlink_GetServerTime
                          ro code  0x1f094884     0x7c  xlink_tcp_client.o [4]
  .text.xsdk_timer_set    ro code  0x1f094900     0x10  xsdk_config.o [4]
  .text.xsdk_tiemr_timerout
                          ro code  0x1f094910     0x24  xsdk_config.o [4]
  .text.XlinkTcpNextWork  ro code  0x1f094934     0x38  xlink_tcp_client.o [4]
  .text.XlinkTcpWorkActivation
                          ro code  0x1f09496c    0x130  xlink_tcp_client.o [4]
  .text.check_typeOk      ro code  0x1f094a9c     0x2c  xlink_net.o [4]
  .text.xlink_process_tcp_data
                          ro code  0x1f094ac8    0x858  xlink_process_tcp_data.o [4]
  .text.XlinkProcessUdpData
                          ro code  0x1f095320    0xb2c  xlink_process_udp_data.o [4]
  .text.__airkiss_strlen  ro code  0x1f095e4c     0x10  airlink.o [7]
  .text                   ro code  0x1f095e5c      0xc  platform_core.o [1]
  .text                   ro code  0x1f095e68     0x7a  fclose.o [6]
  .text                   ro code  0x1f095ee2    0x134  xstopfx.o [6]
  .text                   ro code  0x1f096018    0x1b8  xstoflt.o [6]
  .text                   ro code  0x1f0961d0    0x200  xdtento.o [8]
  .text                   ro code  0x1f0963d0    0x218  xstoxflt.o [6]
  .text                   ro code  0x1f0965e8     0x22  fseek.o [6]
  .text.XlinkGetMACHex    ro code  0x1f09660c     0x38  xlink_tcp_client.o [4]
  .text.check_typeOk_t    ro code  0x1f096644     0x2c  xlink_net.o [4]
  .text.XlinkTcpPing_Clear
                          ro code  0x1f096670     0x18  xlink_tcp_client.o [4]
  .text.XlinkSdkAppSetDeviceName
                          ro code  0x1f096688     0x30  xlink_data.o [4]
  .text.xlink_process_set_pwd
                          ro code  0x1f0966b8     0xf0  xlink_process_tcp_data.o [4]
  .text.xlink_process_tcp_probe_V2
                          ro code  0x1f0967a8    0x124  xlink_process_tcp_data.o [4]
  .text.xlink_process_tcp_event_res
                          ro code  0x1f0968cc     0x70  xlink_process_tcp_data.o [4]
  .text.xlink_process_tcp_notify
                          ro code  0x1f09693c     0x30  xlink_process_tcp_data.o [4]
  .text.handshakeErrorRes.isra.0.constprop.5
                          ro code  0x1f09696c     0x64  xlink_process_udp_data.o [4]
  .text.XlinkClientAddclient
                          ro code  0x1f0969d0    0x168  xlink_client.o [4]
  .text.XlinkProcessUdpProbe_Datapoint_V3.isra.1
                          ro code  0x1f096b38    0x184  xlink_process_udp_data.o [4]
  .text.XlinkClientcheckclientLogin
                          ro code  0x1f096cbc     0x84  xlink_client.o [4]
  .text.XlinkClientByby   ro code  0x1f096d40     0x1c  xlink_client.o [4]
  .text.xlinkSendRetPackage
                          ro code  0x1f096d5c     0x3e  xlink_process_udp_data.o [4]
  .text.xlinkClientReSet  ro code  0x1f096d9c     0x2c  xlink_client.o [4]
  .text.XlinkBuildSubKey  ro code  0x1f096dc8     0x64  xsdk_config.o [4]
  .text.SubKeyErrorRes    ro code  0x1f096e2c     0x3e  xlink_process_udp_data.o [4]
  .text                   ro code  0x1f096e6c     0x7c  xfofind.o [6]
  .text                   ro code  0x1f096ee8     0x1a  close.o [10]
  .text                   ro code  0x1f096f02     0x16  remove.o [10]
  .text                   ro code  0x1f096f18     0x56  xdunscal.o [8]
  .text                   ro code  0x1f096f6e     0xd6  xfspos.o [6]
  .text.xlinkSendRetPWDPackage
                          ro code  0x1f097044     0x74  xlink_process_tcp_data.o [4]
  .text.XlinkPorcess_UDP_GetScan
                          ro code  0x1f0970b8      0xc  xlink_process_udp_data.o [4]
  .text.xlink_net_setSystemTime
                          ro code  0x1f0970c4     0x78  xlink_system.o [4]
  .text.XlinkClientQuit   ro code  0x1f09713c     0x28  xlink_client.o [4]
  .text                   ro code  0x1f097164     0xe0  XShHandles.o [6]
  .text                   ro code  0x1f097244      0xc  xfgpos.o [6]
  .text                   ro code  0x1f097250     0x4c  lseek.o [10]
  .rodata.str1.1          const    0x1f09729c    0x695  xlink_net.o [4]
  .rodata.str1.1          const    0x1f097931    0x5fe  xlink_process_tcp_data.o [4]
  .rodata.str1.1          const    0x1f097f2f    0x396  xlink_process_udp_data.o [4]
  .rodata.__FUNCTION__.7819
                          const    0x1f0982c5     0x1f  xlink_process_tcp_data.o [4]
  .rodata                 const    0x1f0982e4    0x304  mico_cli.o [1]
  .text                   ro code  0x1f0985e8    0x1b0  moc_main.o [1]
  .text                   ro code  0x1f098798     0x28  data_init.o [9]
  .rodata.str1.1          const    0x1f0987c0     0xee  xlink_client.o [4]
  .text                   ro code  0x1f0988ae     0xd0  packbits_init.o [9]
  .text                   ro code  0x1f09897e      0x6  abort.o [6]
  .rodata.str1.1          const    0x1f098984     0xb5  xlink_tcp_client.o [4]
  .rodata.str1.1          const    0x1f098a39     0x9c  xlink_system.o [4]
  .rodata.str1.1          const    0x1f098ad5     0x60  airlink.o [7]
  .rodata                 const    0x1f098b38     0x50  system_easylink.o [1]
  .rodata                 const    0x1f098b88     0x30  moc_main.o [1]
  .rodata                 const    0x1f098bb8     0x24  json_object.o [1]
  .text                   ro code  0x1f098bdc     0x22  fpinit_M.o [8]
  .iar.init_table         const    0x1f098c00     0x34  - Linker created -
  .rodata.m_key           const    0x1f098c34     0x20  xsdk_config.o [4]
  .rodata.__FUNCTION__.7906
                          const    0x1f098c54     0x1c  xlink_client.o [4]
  .rodata.__FUNCTION__.7850
                          const    0x1f098c70     0x1b  xlink_net.o [4]
  .rodata.__FUNCTION__.7969
                          const    0x1f098c8b     0x1b  xlink_process_udp_data.o [4]
  .rodata.__FUNCTION__.7799
                          const    0x1f098ca6     0x18  xlink_process_tcp_data.o [4]
  .rodata.__FUNCTION__.7870
                          const    0x1f098cbe     0x18  xlink_process_tcp_data.o [4]
  .rodata.__FUNCTION__.7770
                          const    0x1f098cd6     0x17  xlink_process_tcp_data.o [4]
  .rodata.__FUNCTION__.7911
                          const    0x1f098ced     0x17  xlink_process_udp_data.o [4]
  .text                   ro code  0x1f098d04     0x16  xprout.o [6]
  .text                   ro code  0x1f098d1c      0xc  putchar.o [6]
  .rodata.__FUNCTION__.7791
                          const    0x1f098d28     0x14  xlink_net.o [4]
  .rodata.__FUNCTION__.7812
                          const    0x1f098d3c     0x14  xlink_net.o [4]
  .rodata.__FUNCTION__.7861
                          const    0x1f098d50     0x14  xlink_process_udp_data.o [4]
  .rodata.__FUNCTION__.7898
                          const    0x1f098d64     0x14  xlink_tcp_client.o [4]
  .rodata.__FUNCTION__.7754
                          const    0x1f098d78     0x13  xlink_net.o [4]
  .rodata.__FUNCTION__.7768
                          const    0x1f098d8b     0x13  xlink_net.o [4]
  .rodata.__FUNCTION__.7953
                          const    0x1f098d9e     0x13  xlink_process_udp_data.o [4]
  .rodata.HEXBUF          const    0x1f098db1     0x10  xlink_tcp_client.o [4]
  .rodata._AK_LIT_ENDIAN  const    0x1f098dc4      0x4  airlink.o [7]
  .text                   ro code  0x1f098dc8      0x0  cstart_closeall.o [9]
  .rodata                 const    0x1f098dc8      0x0  zero_init3.o [9]
  .rodata                 const    0x1f098dc8      0x0  packbits_init.o [9]
  Initializer bytes       const    0x1f098dc8    0x116  <for rw-1>
                                 - 0x1f098ede  0x34e6a


*******************************************************************************
*** INIT TABLE
***

          Address     Size
          -------     ----
Zero (__iar_zero_init3)
    2 destination ranges, total size 0x1f56:
          0x0011c400  0x1f52
          0x0011e354     0x4

Copy/packbits (__iar_packbits_init3)
    1 source range, total size 0x116 (27% of destination):
          0x1f098dc8   0x116
    1 destination range, total size 0x3fc:
          0x0011c000   0x3fc


*******************************************************************************
*** STACK USAGE
***

  Call Graph Root Category  Max Use  Total Use
  ------------------------  -------  ---------
  Program entry                 408        408
  Uncalled function           3 184     48 848


Program entry
  "moc_app_main": 0x1f098601

  Maximum call chain                            *?* 408 bytes
    (** call graph contains indirect calls (example: "moc_app_main") **)

    "moc_app_main"                                   48
    "printf"                                         24
    "_PrintfFullNoMb"                               168
    "_LdtobFullNoMb" in xprintffull_nomb.o [6]       96
    "_GenldFullNoMb" in xprintffull_nomb.o [6]       56
    "localeconv"                                      8
    "__iar_Locale_lconv_init"                         8
    "__iar_dlib_perthread_access"                     0

Uncalled function
  "ak_discovery_thread" in airkiss_discovery.o [1]: 0x1f089105

  Maximum call chain                            *?* 464 bytes
    (** call graph contains indirect calls (example: "close")
                            functions with no stack usage info (example: "XlinkSystemGetDeviceID") **)

    "ak_discovery_thread" in airkiss_discovery.o [1]
                                                    104
    "printf"                                         24
    "_PrintfFullNoMb"                               168
    "_LdtobFullNoMb" in xprintffull_nomb.o [6]       96
    "_GenldFullNoMb" in xprintffull_nomb.o [6]       56
    "localeconv"                                      8
    "__iar_Locale_lconv_init"                         8
    "__iar_dlib_perthread_access"                     0

Uncalled function
  "uart_recv_thread" in appmainmsgqueue.o [1]: 0x1f078e6b

  Maximum call chain                            *?* 976 bytes
    (** call graph contains recursive functions (example: "cJSON_Delete")
                            indirect calls (example: "_free") **)

    "uart_recv_thread" in appmainmsgqueue.o [1]      48
    "send_ConvertFromZigbeeData2Rs485" in appmainmsgqueue.o [1]
                                                    536
    "pushAppMainRecvMsgProcess"                      32
    "printf"                                         24
    "_PrintfFullNoMb"                               168
    "_LdtobFullNoMb" in xprintffull_nomb.o [6]       96
    "_GenldFullNoMb" in xprintffull_nomb.o [6]       56
    "localeconv"                                      8
    "__iar_Locale_lconv_init"                         8
    "__iar_dlib_perthread_access"                     0

Uncalled function
  "popAppMainRecvMsgThread": 0x1f078695

  Maximum call chain                            *?* 424 bytes
    (** call graph contains indirect calls (example: "MicoGpioOutputHigh") **)

    "popAppMainRecvMsgThread"                        32
    "user_uartSend"                                  32
    "printf"                                         24
    "_PrintfFullNoMb"                               168
    "_LdtobFullNoMb" in xprintffull_nomb.o [6]       96
    "_GenldFullNoMb" in xprintffull_nomb.o [6]       56
    "localeconv"                                      8
    "__iar_Locale_lconv_init"                         8
    "__iar_dlib_perthread_access"                     0

Uncalled function
  "popRecvFromFlogCloudMsgThread": 0x1f078c11

  Maximum call chain                            *?* 1 744 bytes
    (** call graph contains recursive functions (example: "cJSON_Delete")
                            indirect calls (example: "_free") **)

    "popRecvFromFlogCloudMsgThread"                    48
    "parseServerMessage"                              560
    "deleteDeviceFromList"                             96
    "removeDevice" in networkserver.o [1]             128
    "rs485_device_delete_from_net"                    168
    "Rs485_SendDataPackage"                           352
    "pushAppMainRecvMsgProcess"                        32
    "printf"                                           24
    "_PrintfFullNoMb"                                 168
    "_LdtobFullNoMb" in xprintffull_nomb.o [6]         96
    "_GenldFullNoMb" in xprintffull_nomb.o [6]         56
    "localeconv"                                        8
    "__iar_Locale_lconv_init"                           8
    "__iar_dlib_perthread_access"                       0

Uncalled function
  "button_irq_handler" in button.o [1]: 0x1f091afd

  Maximum call chain                            *?* 16 bytes
    (** call graph contains indirect calls (example: "MicoGpioEnableIRQ") **)

    "button_irq_handler" in button.o [1]             8
    "MicoGpioEnableIRQ"                              8

Uncalled function
  "button_timeout_handler" in button.o [1]: 0x1f091b61

  Maximum call chain                             *?* 0 bytes
    (** call graph contains indirect calls (example: "button_timeout_handler" in button.o [1]) **)

    "button_timeout_handler" in button.o [1]         0

Uncalled function
  "localConfig_thread" in config_server.o [1]: 0x1f0879dd

  Maximum call chain                            *?* 1 016 bytes
    (** call graph contains recursive functions (example: "lh_table_insert")
                            indirect calls (example: "_calloc") **)

    "localConfig_thread" in config_server.o [1]        72
    "_LocalConfigRespondInComingMessage" in config_server.o [1]
                                                      128
    "system_connect_wifi_normal"                      232
    "wifi_led_quick_glitter_start"                    192
    "pushAppMainRecvMsgProcess"                        32
    "printf"                                           24
    "_PrintfFullNoMb"                                 168
    "_LdtobFullNoMb" in xprintffull_nomb.o [6]         96
    "_GenldFullNoMb" in xprintffull_nomb.o [6]         56
    "localeconv"                                        8
    "__iar_Locale_lconv_init"                           8
    "__iar_dlib_perthread_access"                       0

Uncalled function
  "localConfiglistener_thread" in config_server.o [1]: 0x1f0875b9

  Maximum call chain                            *?* 456 bytes
    (** call graph contains indirect calls (example: "close") **)

    "localConfiglistener_thread" in config_server.o [1]
                                                     96
    "printf"                                         24
    "_PrintfFullNoMb"                               168
    "_LdtobFullNoMb" in xprintffull_nomb.o [6]       96
    "_GenldFullNoMb" in xprintffull_nomb.o [6]       56
    "localeconv"                                      8
    "__iar_Locale_lconv_init"                         8
    "__iar_dlib_perthread_access"                     0

Uncalled function
  "onClearHTTPHeader" in config_server.o [1]: 0x1f08805d

  Maximum call chain                             *?* 8 bytes
    (** call graph contains indirect calls (example: "mico_rtos_unlock_mutex") **)

    "onClearHTTPHeader" in config_server.o [1]       8
    "mico_rtos_unlock_mutex"                         0

Uncalled function
  "onReceivedData" in config_server.o [1]: 0x1f087e51

  Maximum call chain                            *?* 408 bytes
    (** call graph contains indirect calls (example: "MicoFlashErase") **)

    "onReceivedData" in config_server.o [1]          48
    "printf"                                         24
    "_PrintfFullNoMb"                               168
    "_LdtobFullNoMb" in xprintffull_nomb.o [6]       96
    "_GenldFullNoMb" in xprintffull_nomb.o [6]       56
    "localeconv"                                      8
    "__iar_Locale_lconv_init"                         8
    "__iar_dlib_perthread_access"                     0

Uncalled function
  "clear_all_device_recode_inflash": 0x1f064bf1

  Maximum call chain                            *?* 424 bytes
    (** call graph contains indirect calls (example: "mico_rtos_get_time") **)

    "clear_all_device_recode_inflash"                 0
    "user_data_store_update"                         32
    "user_data_flash_write_process" in user_data_store.o [1]
                                                     32
    "printf"                                         24
    "_PrintfFullNoMb"                               168
    "_LdtobFullNoMb" in xprintffull_nomb.o [6]       96
    "_GenldFullNoMb" in xprintffull_nomb.o [6]       56
    "localeconv"                                      8
    "__iar_Locale_lconv_init"                         8
    "__iar_dlib_perthread_access"                     0

Uncalled function
  "close_all_rs485_device": 0x1f067bc1

  Maximum call chain                            *?* 464 bytes
    (** call graph contains indirect calls (example: "mico_rtos_get_time") **)

    "close_all_rs485_device"                         40
    "user_data_store_update"                         32
    "user_data_flash_write_process" in user_data_store.o [1]
                                                     32
    "printf"                                         24
    "_PrintfFullNoMb"                               168
    "_LdtobFullNoMb" in xprintffull_nomb.o [6]       96
    "_GenldFullNoMb" in xprintffull_nomb.o [6]       56
    "localeconv"                                      8
    "__iar_Locale_lconv_init"                         8
    "__iar_dlib_perthread_access"                     0

Uncalled function
  "print_device_infomation": 0x1f064d0d

  Maximum call chain                            *?* 464 bytes
    (** call graph contains indirect calls (example: "mico_rtos_get_time") **)

    "print_device_infomation"                       104
    "printf"                                         24
    "_PrintfFullNoMb"                               168
    "_LdtobFullNoMb" in xprintffull_nomb.o [6]       96
    "_GenldFullNoMb" in xprintffull_nomb.o [6]       56
    "localeconv"                                      8
    "__iar_Locale_lconv_init"                         8
    "__iar_dlib_perthread_access"                     0

Uncalled function
  "rs485_new_device_add_report": 0x1f0676ed

  Maximum call chain                            *?* 2 560 bytes
    (** call graph contains recursive functions (example: "cJSON_Delete")
                            indirect calls (example: "MicoUartSend") **)

    "rs485_new_device_add_report"                      80
    "rs485_sensor_add_integradedevice2list"           144
    "sensor_add_ir_lightray_default_linkage" in sensormanager.o [1]
                                                      640
    "parseServerMessage"                              560
    "deleteDeviceFromList"                             96
    "removeDevice" in networkserver.o [1]             128
    "rs485_device_delete_from_net"                    168
    "Rs485_SendDataPackage"                           352
    "pushAppMainRecvMsgProcess"                        32
    "printf"                                           24
    "_PrintfFullNoMb"                                 168
    "_LdtobFullNoMb" in xprintffull_nomb.o [6]         96
    "_GenldFullNoMb" in xprintffull_nomb.o [6]         56
    "localeconv"                                        8
    "__iar_Locale_lconv_init"                           8
    "__iar_dlib_perthread_access"                       0

Uncalled function
  "scenepanel_device_report_attribute_update": 0x1f065d99

  Maximum call chain                            *?* 480 bytes
    (** call graph contains indirect calls (example: "mico_rtos_get_time") **)

    "scenepanel_device_report_attribute_update"      56
    "user_data_store_update"                         32
    "user_data_flash_write_process" in user_data_store.o [1]
                                                     32
    "printf"                                         24
    "_PrintfFullNoMb"                               168
    "_LdtobFullNoMb" in xprintffull_nomb.o [6]       96
    "_GenldFullNoMb" in xprintffull_nomb.o [6]       56
    "localeconv"                                      8
    "__iar_Locale_lconv_init"                         8
    "__iar_dlib_perthread_access"                     0

Uncalled function
  "json_object_array_delete" in json_object.o [1]: 0x1f0745a9

  Maximum call chain                            *?* 24 bytes
    (** call graph contains indirect calls (example: "_free") **)

    "json_object_array_delete" in json_object.o [1]
                                                     8
    "array_list_free"                               16

Uncalled function
  "json_object_array_entry_free" in json_object.o [1]: 0x1f074599

  Maximum call chain                             *?* 0 bytes
    (** call graph contains indirect calls (example: "json_object_array_entry_free" in json_object.o [1]) **)

    "json_object_array_entry_free" in json_object.o [1]
                                                     0

Uncalled function
  "json_object_array_to_json_string" in json_object.o [1]: 0x1f0744f5

  Maximum call chain                            *?* 576 bytes
    (** call graph contains indirect calls (example: "json_object_array_to_json_string" in json_object.o [1]) **)

    "json_object_array_to_json_string" in json_object.o [1]
                                                     32
    "sprintbuf"                                     160
    "vasprintf"                                      24
    "vsnprintf"                                      24
    "_PrintfFullNoMb"                               168
    "_LdtobFullNoMb" in xprintffull_nomb.o [6]       96
    "_GenldFullNoMb" in xprintffull_nomb.o [6]       56
    "localeconv"                                      8
    "__iar_Locale_lconv_init"                         8
    "__iar_dlib_perthread_access"                     0

Uncalled function
  "json_object_boolean_to_json_string" in json_object.o [1]: 0x1f0742a7

  Maximum call chain                            *?* 544 bytes
    (** call graph contains indirect calls (example: "_realloc") **)

    "json_object_boolean_to_json_string" in json_object.o [1]
                                                      0
    "sprintbuf"                                     160
    "vasprintf"                                      24
    "vsnprintf"                                      24
    "_PrintfFullNoMb"                               168
    "_LdtobFullNoMb" in xprintffull_nomb.o [6]       96
    "_GenldFullNoMb" in xprintffull_nomb.o [6]       56
    "localeconv"                                      8
    "__iar_Locale_lconv_init"                         8
    "__iar_dlib_perthread_access"                     0

Uncalled function
  "json_object_double_to_json_string" in json_object.o [1]: 0x1f074425

  Maximum call chain                            *?* 544 bytes
    (** call graph contains indirect calls (example: "_realloc") **)

    "json_object_double_to_json_string" in json_object.o [1]
                                                      0
    "sprintbuf"                                     160
    "vasprintf"                                      24
    "vsnprintf"                                      24
    "_PrintfFullNoMb"                               168
    "_LdtobFullNoMb" in xprintffull_nomb.o [6]       96
    "_GenldFullNoMb" in xprintffull_nomb.o [6]       56
    "localeconv"                                      8
    "__iar_Locale_lconv_init"                         8
    "__iar_dlib_perthread_access"                     0

Uncalled function
  "json_object_generic_delete" in json_object.o [1]: 0x1f07412d

  Maximum call chain                            *?* 16 bytes
    (** call graph contains indirect calls (example: "_free") **)

    "json_object_generic_delete" in json_object.o [1]
                                                     8
    "printbuf_free"                                  8
    "_free"                                          0

Uncalled function
  "json_object_int_to_json_string" in json_object.o [1]: 0x1f074331

  Maximum call chain                            *?* 544 bytes
    (** call graph contains indirect calls (example: "_realloc") **)

    "json_object_int_to_json_string" in json_object.o [1]
                                                      0
    "sprintbuf"                                     160
    "vasprintf"                                      24
    "vsnprintf"                                      24
    "_PrintfFullNoMb"                               168
    "_LdtobFullNoMb" in xprintffull_nomb.o [6]       96
    "_GenldFullNoMb" in xprintffull_nomb.o [6]       56
    "localeconv"                                      8
    "__iar_Locale_lconv_init"                         8
    "__iar_dlib_perthread_access"                     0

Uncalled function
  "json_object_lh_entry_free" in json_object.o [1]: 0x1f0741f1

  Maximum call chain                             *?* 8 bytes
    (** call graph contains indirect calls (example: "json_object_lh_entry_free" in json_object.o [1]) **)

    "json_object_lh_entry_free" in json_object.o [1]
                                                     8
    "_free"                                          0

Uncalled function
  "json_object_object_delete" in json_object.o [1]: 0x1f074211

  Maximum call chain                            *?* 24 bytes
    (** call graph contains indirect calls (example: "_free") **)

    "json_object_object_delete" in json_object.o [1]
                                                     8
    "lh_table_free"                                 16
    "_free"                                          0

Uncalled function
  "json_object_object_to_json_string" in json_object.o [1]: 0x1f074167

  Maximum call chain                            *?* 624 bytes
    (** call graph contains indirect calls (example: "json_object_object_to_json_string" in json_object.o [1]) **)

    "json_object_object_to_json_string" in json_object.o [1]
                                                     40
    "json_escape_str" in json_object.o [1]           40
    "sprintbuf"                                     160
    "vasprintf"                                      24
    "vsnprintf"                                      24
    "_PrintfFullNoMb"                               168
    "_LdtobFullNoMb" in xprintffull_nomb.o [6]       96
    "_GenldFullNoMb" in xprintffull_nomb.o [6]       56
    "localeconv"                                      8
    "__iar_Locale_lconv_init"                         8
    "__iar_dlib_perthread_access"                     0

Uncalled function
  "json_object_string_delete" in json_object.o [1]: 0x1f074497

  Maximum call chain                            *?* 16 bytes
    (** call graph contains indirect calls (example: "_free") **)

    "json_object_string_delete" in json_object.o [1]
                                                     8
    "printbuf_free"                                  8
    "_free"                                          0

Uncalled function
  "json_object_string_to_json_string" in json_object.o [1]: 0x1f074471

  Maximum call chain                            *?* 600 bytes
    (** call graph contains indirect calls (example: "_realloc") **)

    "json_object_string_to_json_string" in json_object.o [1]
                                                     16
    "json_escape_str" in json_object.o [1]           40
    "sprintbuf"                                     160
    "vasprintf"                                      24
    "vsnprintf"                                      24
    "_PrintfFullNoMb"                               168
    "_LdtobFullNoMb" in xprintffull_nomb.o [6]       96
    "_GenldFullNoMb" in xprintffull_nomb.o [6]       56
    "localeconv"                                      8
    "__iar_Locale_lconv_init"                         8
    "__iar_dlib_perthread_access"                     0

Uncalled function
  "print_linkage_list": 0x1f081c91

  Maximum call chain                            *?* 592 bytes
    (** call graph contains recursive functions (example: "cJSON_Delete")
                            indirect calls (example: "cJSON_AddItemToObject") **)

    "print_linkage_list"                            128
    "cJSON_PrintUnformatted"                          0
    "print_value" in cJSON.o [1]                      0

Uncalled function
  "lh_char_equal": 0x1f082689

  Maximum call chain                                 8 bytes

    "lh_char_equal"                                  8
    "__iar_unaligned_strcmp"                         0

Uncalled function
  "lh_char_hash": 0x1f08266d

  Maximum call chain                                 0 bytes

    "lh_char_hash"                                   0

Uncalled function
  "cli_exit_handler" in mico_cli.o [1]: 0x1f0868b1

  Maximum call chain                                 0 bytes

    "cli_exit_handler" in mico_cli.o [1]             0

Uncalled function
  "cli_main" in mico_cli.o [1]: 0x1f0863fb

  Maximum call chain                            *?* 736 bytes
    (** call graph contains indirect calls (example: "handle_input" in mico_cli.o [1]) **)

    "cli_main" in mico_cli.o [1]                     40
    "get_input" in mico_cli.o [1]                    16
    "tab_complete" in mico_cli.o [1]                 40
    "cli_printf"                                    280
    "vsnprintf"                                      24
    "_PrintfFullNoMb"                               168
    "_LdtobFullNoMb" in xprintffull_nomb.o [6]       96
    "_GenldFullNoMb" in xprintffull_nomb.o [6]       56
    "localeconv"                                      8
    "__iar_Locale_lconv_init"                         8
    "__iar_dlib_perthread_access"                     0

Uncalled function
  "echo_cmd_handler" in mico_cli.o [1]: 0x1f086827

  Maximum call chain                               376 bytes

    "echo_cmd_handler" in mico_cli.o [1]            16
    "snprintf"                                      24
    "_PrintfFullNoMb"                              168
    "_LdtobFullNoMb" in xprintffull_nomb.o [6]      96
    "_GenldFullNoMb" in xprintffull_nomb.o [6]      56
    "localeconv"                                     8
    "__iar_Locale_lconv_init"                        8
    "__iar_dlib_perthread_access"                    0

Uncalled function
  "get_version" in mico_cli.o [1]: 0x1f086695

  Maximum call chain                            *?* 512 bytes
    (** call graph contains indirect calls (example: "wlan_driver_version") **)

    "get_version" in mico_cli.o [1]                 152
    "snprintf"                                       24
    "_PrintfFullNoMb"                               168
    "_LdtobFullNoMb" in xprintffull_nomb.o [6]       96
    "_GenldFullNoMb" in xprintffull_nomb.o [6]       56
    "localeconv"                                      8
    "__iar_Locale_lconv_init"                         8
    "__iar_dlib_perthread_access"                     0

Uncalled function
  "help_command" in mico_cli.o [1]: 0x1f0868b3

  Maximum call chain                               400 bytes

    "help_command" in mico_cli.o [1]                40
    "snprintf"                                      24
    "_PrintfFullNoMb"                              168
    "_LdtobFullNoMb" in xprintffull_nomb.o [6]      96
    "_GenldFullNoMb" in xprintffull_nomb.o [6]      56
    "localeconv"                                     8
    "__iar_Locale_lconv_init"                        8
    "__iar_dlib_perthread_access"                    0

Uncalled function
  "micodebug_Command" in mico_cli.o [1]: 0x1f0869a3

  Maximum call chain                               376 bytes

    "micodebug_Command" in mico_cli.o [1]           16
    "snprintf"                                      24
    "_PrintfFullNoMb"                              168
    "_LdtobFullNoMb" in xprintffull_nomb.o [6]      96
    "_GenldFullNoMb" in xprintffull_nomb.o [6]      56
    "localeconv"                                     8
    "__iar_Locale_lconv_init"                        8
    "__iar_dlib_perthread_access"                    0

Uncalled function
  "ota_Command" in mico_cli.o [1]: 0x1f086665

  Maximum call chain                            *?* 32 bytes
    (** call graph contains indirect calls (example: "mico_rtos_create_thread") **)

    "ota_Command" in mico_cli.o [1]                 16
    "mico_rtos_create_thread"                       16

Uncalled function
  "partShow_Command" in mico_cli.o [1]: 0x1f0865d1

  Maximum call chain                            *?* 400 bytes
    (** call graph contains indirect calls (example: "MicoFlashGetInfo") **)

    "partShow_Command" in mico_cli.o [1]             40
    "snprintf"                                       24
    "_PrintfFullNoMb"                               168
    "_LdtobFullNoMb" in xprintffull_nomb.o [6]       96
    "_GenldFullNoMb" in xprintffull_nomb.o [6]       56
    "localeconv"                                      8
    "__iar_Locale_lconv_init"                         8
    "__iar_dlib_perthread_access"                     0

Uncalled function
  "reboot" in mico_cli.o [1]: 0x1f086823

  Maximum call chain                             *?* 0 bytes
    (** call graph contains indirect calls (example: "MicoSystemReboot") **)

    "reboot" in mico_cli.o [1]                       0
    "MicoSystemReboot"                               0

Uncalled function
  "tftp_Command" in mico_cli.o [1]: 0x1f0864cd

  Maximum call chain                            *?* 1 800 bytes
    (** call graph contains indirect calls (example: "MicoFlashGetInfo") **)

    "tftp_Command" in mico_cli.o [1]                   96
    "tsend"                                         1 672
    "req_packet" in tftpc.o [1]                        24
    "__iar_unaligned___aeabi_memcpy"                    0
    "__iar_unaligned___aeabi_memcpy4"                   8

Uncalled function
  "uptime_Command" in mico_cli.o [1]: 0x1f086627

  Maximum call chain                            *?* 376 bytes
    (** call graph contains indirect calls (example: "mico_rtos_get_time") **)

    "uptime_Command" in mico_cli.o [1]               16
    "snprintf"                                       24
    "_PrintfFullNoMb"                               168
    "_LdtobFullNoMb" in xprintffull_nomb.o [6]       96
    "_GenldFullNoMb" in xprintffull_nomb.o [6]       56
    "localeconv"                                      8
    "__iar_Locale_lconv_init"                         8
    "__iar_dlib_perthread_access"                     0

Uncalled function
  "tftp_ota_thread": 0x1f086655

  Maximum call chain                            *?* 1 464 bytes
    (** call graph contains indirect calls (example: "mico_rtos_delete_thread") **)

    "tftp_ota_thread"                                   8
    "tftp_ota"                                        696
    "tget"                                            744
    "recvfrom"                                         16

Uncalled function
  "_bonjour_thread" in mico_mdns.o [1]: 0x1f08ad2d

  Maximum call chain                            *?* 296 bytes
    (** call graph contains indirect calls (example: "sendto") **)

    "_bonjour_thread" in mico_mdns.o [1]             88
    "bonjour_send_record"                           152
    "mdns_send_message" in mico_mdns.o [1]           40
    "sendto"                                         16

Uncalled function
  "BonjourNotify_SYSWillPoerOffHandler": 0x1f08aab1

  Maximum call chain                            *?* 72 bytes
    (** call graph contains indirect calls (example: "mico_rtos_create_thread") **)

    "BonjourNotify_SYSWillPoerOffHandler"            8
    "mdns_suspend_record"                           48
    "mico_rtos_create_thread"                       16

Uncalled function
  "BonjourNotify_WifiStatusHandler": 0x1f08aa81

  Maximum call chain                            *?* 64 bytes
    (** call graph contains indirect calls (example: "mico_rtos_create_thread") **)

    "BonjourNotify_WifiStatusHandler"                0
    "mdns_suspend_record"                           48
    "mico_rtos_create_thread"                       16

Uncalled function
  "_bonjour_send_anounce_thread": 0x1f08a527

  Maximum call chain                            *?* 16 bytes
    (** call graph contains indirect calls (example: "mico_rtos_delete_thread") **)

    "_bonjour_send_anounce_thread"                   8
    "mico_rtos_thread_msleep"                        0
    "mico_rtos_delay_milliseconds"                   8

Uncalled function
  "process_dns_questions": 0x1f089fb9

  Maximum call chain                            *?* 344 bytes
    (** call graph contains indirect calls (example: "_free") **)

    "process_dns_questions"                         288
    "mdns_send_message" in mico_mdns.o [1]           40
    "sendto"                                         16

Uncalled function
  "timed_event_handler" in mico_rtos_common.o [1]: 0x1f06b1a1

  Maximum call chain                            *?* 16 bytes
    (** call graph contains indirect calls (example: "mico_rtos_push_to_queue") **)

    "timed_event_handler" in mico_rtos_common.o [1]
                                                    16

Uncalled function
  "timer_thread_func" in mico_rtos_common.o [1]: 0x1f06b269

  Maximum call chain                            *?* 24 bytes
    (** call graph contains indirect calls (example: "_free") **)

    "timer_thread_func" in mico_rtos_common.o [1]
                                                    24
    "_free"                                          0

Uncalled function
  "worker_thread_main" in mico_rtos_common.o [1]: 0x1f06b129

  Maximum call chain                            *?* 16 bytes
    (** call graph contains indirect calls (example: "worker_thread_main" in mico_rtos_common.o [1]) **)

    "worker_thread_main" in mico_rtos_common.o [1]
                                                    16

Uncalled function
  "gethostbyname": 0x1f08d5f1

  Maximum call chain                             *?* 0 bytes
    (** call graph contains indirect calls (example: "gethostbyname") **)

    "gethostbyname"                                  0

Uncalled function
  "system_config_mode_worker" in mico_system_init.o [1]: 0x1f07588d

  Maximum call chain                            *?* 440 bytes
    (** call graph contains indirect calls (example: "mico_rtos_get_time") **)

    "system_config_mode_worker" in mico_system_init.o [1]
                                                     24
    "system_easylink_start"                          32
    "config_server_start"                            24
    "printf"                                         24
    "_PrintfFullNoMb"                               168
    "_LdtobFullNoMb" in xprintffull_nomb.o [6]       96
    "_GenldFullNoMb" in xprintffull_nomb.o [6]       56
    "localeconv"                                      8
    "__iar_Locale_lconv_init"                         8
    "__iar_dlib_perthread_access"                     0

Uncalled function
  "_watchdog_reload_timer_handler" in mico_system_monitor.o [1]: 0x1f085ed7

  Maximum call chain                             *?* 8 bytes
    (** call graph contains indirect calls (example: "mico_rtos_get_time") **)

    "_watchdog_reload_timer_handler" in mico_system_monitor.o [1]
                                                     8
    "mico_rtos_get_time"                             0

Uncalled function
  "mico_system_monitor_thread_main": 0x1f085ea5

  Maximum call chain                            *?* 24 bytes
    (** call graph contains indirect calls (example: "MicoWdgReload") **)

    "mico_system_monitor_thread_main"               16
    "mico_rtos_thread_msleep"                        0
    "mico_rtos_delay_milliseconds"                   8

Uncalled function
  "ApListAdvCallback": 0x1f08b0cf

  Maximum call chain                            *?* 16 bytes
    (** call graph contains indirect calls (example: "ApListAdvCallback") **)

    "ApListAdvCallback"                             16

Uncalled function
  "ApListCallback": 0x1f08b0b5

  Maximum call chain                            *?* 16 bytes
    (** call graph contains indirect calls (example: "ApListCallback") **)

    "ApListCallback"                                16

Uncalled function
  "NetCallback": 0x1f08b127

  Maximum call chain                            *?* 16 bytes
    (** call graph contains indirect calls (example: "NetCallback") **)

    "NetCallback"                                   16

Uncalled function
  "RptConfigmodeRslt": 0x1f08b141

  Maximum call chain                            *?* 16 bytes
    (** call graph contains indirect calls (example: "RptConfigmodeRslt") **)

    "RptConfigmodeRslt"                             16

Uncalled function
  "WifiStatusHandler": 0x1f08b0e9

  Maximum call chain                            *?* 16 bytes
    (** call graph contains indirect calls (example: "WifiStatusHandler") **)

    "WifiStatusHandler"                             16

Uncalled function
  "connected_ap_info": 0x1f08b103

  Maximum call chain                            *?* 24 bytes
    (** call graph contains indirect calls (example: "connected_ap_info") **)

    "connected_ap_info"                             24

Uncalled function
  "dns_ip_set": 0x1f08b193

  Maximum call chain                            *?* 16 bytes
    (** call graph contains indirect calls (example: "dns_ip_set") **)

    "dns_ip_set"                                    16

Uncalled function
  "easylink_user_data_result": 0x1f08b15b

  Maximum call chain                            *?* 16 bytes
    (** call graph contains indirect calls (example: "easylink_user_data_result") **)

    "easylink_user_data_result"                     16

Uncalled function
  "join_fail": 0x1f08b1c7

  Maximum call chain                            *?* 16 bytes
    (** call graph contains indirect calls (example: "join_fail") **)

    "join_fail"                                     16

Uncalled function
  "mico_rtos_stack_overflow": 0x1f08b1f7

  Maximum call chain                            *?* 16 bytes
    (** call graph contains indirect calls (example: "mico_rtos_stack_overflow") **)

    "mico_rtos_stack_overflow"                      16

Uncalled function
  "socket_connected": 0x1f08b179

  Maximum call chain                            *?* 16 bytes
    (** call graph contains indirect calls (example: "socket_connected") **)

    "socket_connected"                              16

Uncalled function
  "wifi_reboot_event": 0x1f08b1e1

  Maximum call chain                             *?* 8 bytes
    (** call graph contains indirect calls (example: "wifi_reboot_event") **)

    "wifi_reboot_event"                              8

Uncalled function
  "_sys_power_state_change_handler" in mico_system_power_daemon.o [1]: 0x1f07c4a1

  Maximum call chain                            *?* 368 bytes
    (** call graph contains indirect calls (example: "MicoSystemReboot") **)

    "_sys_power_state_change_handler" in mico_system_power_daemon.o [1]
                                                      8
    "printf"                                         24
    "_PrintfFullNoMb"                               168
    "_LdtobFullNoMb" in xprintffull_nomb.o [6]       96
    "_GenldFullNoMb" in xprintffull_nomb.o [6]       56
    "localeconv"                                      8
    "__iar_Locale_lconv_init"                         8
    "__iar_dlib_perthread_access"                     0

Uncalled function
  "_sys_will_power_off_handler" in mico_system_power_daemon.o [1]: 0x1f07c4dd

  Maximum call chain                            *?* 448 bytes
    (** call graph contains indirect calls (example: "mico_rtos_get_time") **)

    "_sys_will_power_off_handler" in mico_system_power_daemon.o [1]
                                                     24
    "mico_system_context_update"                     24
    "internal_update_config" in mico_system_para_storage.o [1]
                                                     40
    "printf"                                         24
    "_PrintfFullNoMb"                               168
    "_LdtobFullNoMb" in xprintffull_nomb.o [6]       96
    "_GenldFullNoMb" in xprintffull_nomb.o [6]       56
    "localeconv"                                      8
    "__iar_Locale_lconv_init"                         8
    "__iar_dlib_perthread_access"                     0

Uncalled function
  "PlatformEasyLinkButtonClickedCallback": 0x1f07c399

  Maximum call chain                            *?* 384 bytes
    (** call graph contains indirect calls (example: "mico_rtos_get_time") **)

    "PlatformEasyLinkButtonClickedCallback"           0
    "mico_system_power_perform"                      24
    "printf"                                         24
    "_PrintfFullNoMb"                               168
    "_LdtobFullNoMb" in xprintffull_nomb.o [6]       96
    "_GenldFullNoMb" in xprintffull_nomb.o [6]       56
    "localeconv"                                      8
    "__iar_Locale_lconv_init"                         8
    "__iar_dlib_perthread_access"                     0

Uncalled function
  "PlatformEasyLinkButtonLongPressedCallback": 0x1f07c3d9

  Maximum call chain                            *?* 456 bytes
    (** call graph contains indirect calls (example: "mico_rtos_get_time")
                            functions with no stack usage info (example: "XlinkReSetSDK") **)

    "PlatformEasyLinkButtonLongPressedCallback"      24
    "mico_system_context_restore"                    32
    "internal_update_config" in mico_system_para_storage.o [1]
                                                     40
    "printf"                                         24
    "_PrintfFullNoMb"                               168
    "_LdtobFullNoMb" in xprintffull_nomb.o [6]       96
    "_GenldFullNoMb" in xprintffull_nomb.o [6]       56
    "localeconv"                                      8
    "__iar_Locale_lconv_init"                         8
    "__iar_dlib_perthread_access"                     0

Uncalled function
  "PlatformStandbyButtonClickedCallback": 0x1f07c439

  Maximum call chain                            *?* 384 bytes
    (** call graph contains indirect calls (example: "mico_rtos_get_time") **)

    "PlatformStandbyButtonClickedCallback"            0
    "mico_system_power_perform"                      24
    "printf"                                         24
    "_PrintfFullNoMb"                               168
    "_LdtobFullNoMb" in xprintffull_nomb.o [6]       96
    "_GenldFullNoMb" in xprintffull_nomb.o [6]       56
    "localeconv"                                      8
    "__iar_Locale_lconv_init"                         8
    "__iar_dlib_perthread_access"                     0

Uncalled function
  "arp_Command": 0x1f07723b

  Maximum call chain                             *?* 8 bytes
    (** call graph contains indirect calls (example: "arp_Command") **)

    "arp_Command"                                    8

Uncalled function
  "dns_Command": 0x1f07725b

  Maximum call chain                             *?* 8 bytes
    (** call graph contains indirect calls (example: "dns_Command") **)

    "dns_Command"                                    8

Uncalled function
  "driver_state_Command": 0x1f0772cb

  Maximum call chain                             *?* 8 bytes
    (** call graph contains indirect calls (example: "driver_state_Command") **)

    "driver_state_Command"                           8

Uncalled function
  "ifconfig_Command": 0x1f07722b

  Maximum call chain                             *?* 8 bytes
    (** call graph contains indirect calls (example: "ifconfig_Command") **)

    "ifconfig_Command"                               8

Uncalled function
  "memory_dump_Command": 0x1f07729b

  Maximum call chain                             *?* 8 bytes
    (** call graph contains indirect calls (example: "memory_dump_Command") **)

    "memory_dump_Command"                            8

Uncalled function
  "memory_set_Command": 0x1f0772ab

  Maximum call chain                             *?* 8 bytes
    (** call graph contains indirect calls (example: "memory_set_Command") **)

    "memory_set_Command"                             8

Uncalled function
  "memory_show_Command": 0x1f07728b

  Maximum call chain                             *?* 8 bytes
    (** call graph contains indirect calls (example: "memory_show_Command") **)

    "memory_show_Command"                            8

Uncalled function
  "memp_dump_Command": 0x1f0772bb

  Maximum call chain                             *?* 8 bytes
    (** call graph contains indirect calls (example: "memp_dump_Command") **)

    "memp_dump_Command"                              8

Uncalled function
  "ping_Command": 0x1f07724b

  Maximum call chain                             *?* 8 bytes
    (** call graph contains indirect calls (example: "ping_Command") **)

    "ping_Command"                                   8

Uncalled function
  "socket_show_Command": 0x1f07727b

  Maximum call chain                             *?* 8 bytes
    (** call graph contains indirect calls (example: "socket_show_Command") **)

    "socket_show_Command"                            8

Uncalled function
  "task_Command": 0x1f07726b

  Maximum call chain                             *?* 8 bytes
    (** call graph contains indirect calls (example: "task_Command") **)

    "task_Command"                                   8

Uncalled function
  "wifidebug_Command": 0x1f07720b

  Maximum call chain                             *?* 8 bytes
    (** call graph contains indirect calls (example: "wifidebug_Command") **)

    "wifidebug_Command"                              8

Uncalled function
  "wifiscan_Command": 0x1f07721b

  Maximum call chain                             *?* 8 bytes
    (** call graph contains indirect calls (example: "wifiscan_Command") **)

    "wifiscan_Command"                               8

Uncalled function
  "wifistate_Command": 0x1f0771fb

  Maximum call chain                             *?* 8 bytes
    (** call graph contains indirect calls (example: "wifistate_Command") **)

    "wifistate_Command"                              8

Uncalled function
  "application_thread_main" in moc_main.o [1]: 0x1f0985e9

  Maximum call chain                            *?* 880 bytes
    (** call graph contains indirect calls (example: "_malloc")
                            functions with no stack usage info (example: "XlinkGetServerTime") **)

    "application_thread_main" in moc_main.o [1]       8
    "application_start"                             168
    "mico_system_init"                               32
    "system_discovery_init"                         168
    "mdns_add_record"                                56
    "start_bonjour_service" in mico_mdns.o [1]       48
    "mico_system_notify_register"                    40
    "printf"                                         24
    "_PrintfFullNoMb"                               168
    "_LdtobFullNoMb" in xprintffull_nomb.o [6]       96
    "_GenldFullNoMb" in xprintffull_nomb.o [6]       56
    "localeconv"                                      8
    "__iar_Locale_lconv_init"                         8
    "__iar_dlib_perthread_access"                     0

Uncalled function
  "FOTA_WifiStatusHandler_t" in OTAupgrade.o [1]: 0x1f083125

  Maximum call chain                                 0 bytes

    "FOTA_WifiStatusHandler_t" in OTAupgrade.o [1]
                                                     0

Uncalled function
  "request_DeviceState": 0x1f08c21b

  Maximum call chain                            *?* 992 bytes
    (** call graph contains indirect calls (example: "_free") **)

    "request_DeviceState"                            48
    "rs485_RequestOneNotIRSensorState"               40
    "rs485_request_get_device"                      160
    "Rs485_SendDataPackage"                         352
    "pushAppMainRecvMsgProcess"                      32
    "printf"                                         24
    "_PrintfFullNoMb"                               168
    "_LdtobFullNoMb" in xprintffull_nomb.o [6]       96
    "_GenldFullNoMb" in xprintffull_nomb.o [6]       56
    "localeconv"                                      8
    "__iar_Locale_lconv_init"                         8
    "__iar_dlib_perthread_access"                     0

Uncalled function
  "rs485_uart_data_recv": 0x1f08bf1d

  Maximum call chain                            *?* 976 bytes
    (** call graph contains indirect calls (example: "MicoUartRecv") **)

    "rs485_uart_data_recv"                          568
    "Rs485RecvUartPkt"                               48
    "printf"                                         24
    "_PrintfFullNoMb"                               168
    "_LdtobFullNoMb" in xprintffull_nomb.o [6]       96
    "_GenldFullNoMb" in xprintffull_nomb.o [6]       56
    "localeconv"                                      8
    "__iar_Locale_lconv_init"                         8
    "__iar_dlib_perthread_access"                     0

Uncalled function
  "print_sensor_device_info": 0x1f073135

  Maximum call chain                            *?* 608 bytes
    (** call graph contains indirect calls (example: "mico_rtos_get_time") **)

    "print_sensor_device_info"                      248
    "printf"                                         24
    "_PrintfFullNoMb"                               168
    "_LdtobFullNoMb" in xprintffull_nomb.o [6]       96
    "_GenldFullNoMb" in xprintffull_nomb.o [6]       56
    "localeconv"                                      8
    "__iar_Locale_lconv_init"                         8
    "__iar_dlib_perthread_access"                     0

Uncalled function
  "EasyLinkNotify_EasyLinkCompleteHandler" in system_easylink.o [1]: 0x1f084401

  Maximum call chain                            *?* 400 bytes
    (** call graph contains indirect calls (example: "mico_rtos_get_time") **)

    "EasyLinkNotify_EasyLinkCompleteHandler" in system_easylink.o [1]
                                                     40
    "printf"                                         24
    "_PrintfFullNoMb"                               168
    "_LdtobFullNoMb" in xprintffull_nomb.o [6]       96
    "_GenldFullNoMb" in xprintffull_nomb.o [6]       56
    "localeconv"                                      8
    "__iar_Locale_lconv_init"                         8
    "__iar_dlib_perthread_access"                     0

Uncalled function
  "EasyLinkNotify_EasyLinkGetExtraDataHandler" in system_easylink.o [1]: 0x1f084691

  Maximum call chain                            *?* 456 bytes
    (** call graph contains indirect calls (example: "_malloc") **)

    "EasyLinkNotify_EasyLinkGetExtraDataHandler" in system_easylink.o [1]
                                                     64
    "DataToHexStringWithSpaces"                      32
    "printf"                                         24
    "_PrintfFullNoMb"                               168
    "_LdtobFullNoMb" in xprintffull_nomb.o [6]       96
    "_GenldFullNoMb" in xprintffull_nomb.o [6]       56
    "localeconv"                                      8
    "__iar_Locale_lconv_init"                         8
    "__iar_dlib_perthread_access"                     0

Uncalled function
  "EasyLinkNotify_WifiStatusHandler" in system_easylink.o [1]: 0x1f084259

  Maximum call chain                            *?* 448 bytes
    (** call graph contains indirect calls (example: "_malloc") **)

    "EasyLinkNotify_WifiStatusHandler" in system_easylink.o [1]
                                                     24
    "mico_system_context_update"                     24
    "internal_update_config" in mico_system_para_storage.o [1]
                                                     40
    "printf"                                         24
    "_PrintfFullNoMb"                               168
    "_LdtobFullNoMb" in xprintffull_nomb.o [6]       96
    "_GenldFullNoMb" in xprintffull_nomb.o [6]       56
    "localeconv"                                      8
    "__iar_Locale_lconv_init"                         8
    "__iar_dlib_perthread_access"                     0

Uncalled function
  "airkiss_broadcast_thread" in system_easylink.o [1]: 0x1f085241

  Maximum call chain                            *?* 408 bytes
    (** call graph contains indirect calls (example: "MicoSystemReboot") **)

    "airkiss_broadcast_thread" in system_easylink.o [1]
                                                     48
    "printf"                                         24
    "_PrintfFullNoMb"                               168
    "_LdtobFullNoMb" in xprintffull_nomb.o [6]       96
    "_GenldFullNoMb" in xprintffull_nomb.o [6]       56
    "localeconv"                                      8
    "__iar_Locale_lconv_init"                         8
    "__iar_dlib_perthread_access"                     0

Uncalled function
  "easylink_thread" in system_easylink.o [1]: 0x1f084d0d

  Maximum call chain                            *?* 1 072 bytes
    (** call graph contains indirect calls (example: "_malloc") **)

    "easylink_thread" in system_easylink.o [1]        256
    "system_connect_wifi_normal"                      232
    "wifi_led_quick_glitter_start"                    192
    "pushAppMainRecvMsgProcess"                        32
    "printf"                                           24
    "_PrintfFullNoMb"                                 168
    "_LdtobFullNoMb" in xprintffull_nomb.o [6]         96
    "_GenldFullNoMb" in xprintffull_nomb.o [6]         56
    "localeconv"                                        8
    "__iar_Locale_lconv_init"                           8
    "__iar_dlib_perthread_access"                       0

Uncalled function
  "remove_bonjour_for_easylink" in system_easylink.o [1]: 0x1f085925

  Maximum call chain                            *?* 64 bytes
    (** call graph contains indirect calls (example: "mico_rtos_create_thread") **)

    "remove_bonjour_for_easylink" in system_easylink.o [1]
                                                     0
    "mdns_suspend_record"                           48
    "mico_rtos_create_thread"                       16

Uncalled function
  "_led_EL_Timeout_handler" in system_easylink_delegate.o [1]: 0x1f08e001

  Maximum call chain                             *?* 0 bytes
    (** call graph contains indirect calls (example: "MicoGpioOutputTrigger") **)

    "_led_EL_Timeout_handler" in system_easylink_delegate.o [1]
                                                     0
    "MicoGpioOutputTrigger"                          0

Uncalled function
  "micoNotify_ConnectFailedHandler" in system_misc.o [1]: 0x1f076343

  Maximum call chain                            *?* 384 bytes
    (** call graph contains indirect calls (example: "mico_rtos_get_time") **)

    "micoNotify_ConnectFailedHandler" in system_misc.o [1]
                                                     24
    "printf"                                         24
    "_PrintfFullNoMb"                               168
    "_LdtobFullNoMb" in xprintffull_nomb.o [6]       96
    "_GenldFullNoMb" in xprintffull_nomb.o [6]       56
    "localeconv"                                      8
    "__iar_Locale_lconv_init"                         8
    "__iar_dlib_perthread_access"                     0

Uncalled function
  "micoNotify_DHCPCompleteHandler" in system_misc.o [1]: 0x1f0762b1

  Maximum call chain                            *?* 384 bytes
    (** call graph contains indirect calls (example: "mico_rtos_get_time") **)

    "micoNotify_DHCPCompleteHandler" in system_misc.o [1]
                                                     24
    "printf"                                         24
    "_PrintfFullNoMb"                               168
    "_LdtobFullNoMb" in xprintffull_nomb.o [6]       96
    "_GenldFullNoMb" in xprintffull_nomb.o [6]       56
    "localeconv"                                      8
    "__iar_Locale_lconv_init"                         8
    "__iar_dlib_perthread_access"                     0

Uncalled function
  "micoNotify_StackOverflowErrHandler" in system_misc.o [1]: 0x1f0763f1

  Maximum call chain                            *?* 384 bytes
    (** call graph contains indirect calls (example: "MicoSystemReboot") **)

    "micoNotify_StackOverflowErrHandler" in system_misc.o [1]
                                                     24
    "printf"                                         24
    "_PrintfFullNoMb"                               168
    "_LdtobFullNoMb" in xprintffull_nomb.o [6]       96
    "_GenldFullNoMb" in xprintffull_nomb.o [6]       56
    "localeconv"                                      8
    "__iar_Locale_lconv_init"                         8
    "__iar_dlib_perthread_access"                     0

Uncalled function
  "micoNotify_WiFIParaChangedHandler" in system_misc.o [1]: 0x1f0765f5

  Maximum call chain                            *?* 464 bytes
    (** call graph contains indirect calls (example: "mico_rtos_get_time") **)

    "micoNotify_WiFIParaChangedHandler" in system_misc.o [1]
                                                     40
    "mico_system_context_update"                     24
    "internal_update_config" in mico_system_para_storage.o [1]
                                                     40
    "printf"                                         24
    "_PrintfFullNoMb"                               168
    "_LdtobFullNoMb" in xprintffull_nomb.o [6]       96
    "_GenldFullNoMb" in xprintffull_nomb.o [6]       56
    "localeconv"                                      8
    "__iar_Locale_lconv_init"                         8
    "__iar_dlib_perthread_access"                     0

Uncalled function
  "micoNotify_WifiStatusHandler" in system_misc.o [1]: 0x1f076447

  Maximum call chain                            *?* 968 bytes
    (** call graph contains indirect calls (example: "mico_rtos_lock_mutex") **)

    "micoNotify_WifiStatusHandler" in system_misc.o [1]
                                                    128
    "Send_wifi_status"                                0
    "wifi_lighten_led_color"                         48
    "wifi_led_onoff"                                208
    "wifi_led_slow_glitter_start"                   192
    "pushAppMainRecvMsgProcess"                      32
    "printf"                                         24
    "_PrintfFullNoMb"                               168
    "_LdtobFullNoMb" in xprintffull_nomb.o [6]       96
    "_GenldFullNoMb" in xprintffull_nomb.o [6]       56
    "localeconv"                                      8
    "__iar_Locale_lconv_init"                         8
    "__iar_dlib_perthread_access"                     0

Uncalled function
  "micoNotify_WlanFatalErrHandler" in system_misc.o [1]: 0x1f076399

  Maximum call chain                            *?* 376 bytes
    (** call graph contains indirect calls (example: "MicoSystemReboot") **)

    "micoNotify_WlanFatalErrHandler" in system_misc.o [1]
                                                     16
    "printf"                                         24
    "_PrintfFullNoMb"                               168
    "_LdtobFullNoMb" in xprintffull_nomb.o [6]       96
    "_GenldFullNoMb" in xprintffull_nomb.o [6]       56
    "localeconv"                                      8
    "__iar_Locale_lconv_init"                         8
    "__iar_dlib_perthread_access"                     0

Uncalled function
  "FOTA_WifiStatusHandler" in tftp_ota.o [1]: 0x1f08faa1

  Maximum call chain                                 0 bytes

    "FOTA_WifiStatusHandler" in tftp_ota.o [1]       0

Uncalled function
  "TimerCtrlCallBack": 0x1f0797d7

  Maximum call chain                            *?* 1 352 bytes
    (** call graph contains indirect calls (example: "mico_rtos_get_time") **)

    "TimerCtrlCallBack"                               216
    "timer_scene_control"                             224
    "rs485_device_scene_control"                      168
    "Rs485_SendDataPackage"                           352
    "pushAppMainRecvMsgProcess"                        32
    "printf"                                           24
    "_PrintfFullNoMb"                                 168
    "_LdtobFullNoMb" in xprintffull_nomb.o [6]         96
    "_GenldFullNoMb" in xprintffull_nomb.o [6]         56
    "localeconv"                                        8
    "__iar_Locale_lconv_init"                           8
    "__iar_dlib_perthread_access"                       0

Uncalled function
  "print_timer_ctrl_info": 0x1f06dbc1

  Maximum call chain                            *?* 584 bytes
    (** call graph contains indirect calls (example: "mico_rtos_get_time") **)

    "print_timer_ctrl_info"                         224
    "printf"                                         24
    "_PrintfFullNoMb"                               168
    "_LdtobFullNoMb" in xprintffull_nomb.o [6]       96
    "_GenldFullNoMb" in xprintffull_nomb.o [6]       56
    "localeconv"                                      8
    "__iar_Locale_lconv_init"                         8
    "__iar_dlib_perthread_access"                     0

Uncalled function
  "runTask": 0x1f07b81d

  Maximum call chain                            *?* 400 bytes
    (** call graph contains indirect calls (example: "runTask") **)

    "runTask"                                        40
    "printf"                                         24
    "_PrintfFullNoMb"                               168
    "_LdtobFullNoMb" in xprintffull_nomb.o [6]       96
    "_GenldFullNoMb" in xprintffull_nomb.o [6]       56
    "localeconv"                                      8
    "__iar_Locale_lconv_init"                         8
    "__iar_dlib_perthread_access"                     0

Uncalled function
  "sig_func1sec": 0x1f07b439

  Maximum call chain                            *?* 168 bytes
    (** call graph contains indirect calls (example: "sig_func1sec") **)

    "sig_func1sec"                                   24
    "__localtime32"                                   8
    "_Tzoff"                                         32
    "__iar_Stolx"                                    32
    "__iar_Stoulx"                                   56
    "isspace"                                         8
    "_LocaleForCat"                                   8
    "__iar_dlib_perthread_access"                     0

Uncalled function
  "zigbee_send_scene_control": 0x1f069739

  Maximum call chain                            *?* 584 bytes
    (** call graph contains indirect calls (example: "_free") **)

    "zigbee_send_scene_control"                     192
    "pushAppMainRecvMsgProcess"                      32
    "printf"                                         24
    "_PrintfFullNoMb"                               168
    "_LdtobFullNoMb" in xprintffull_nomb.o [6]       96
    "_GenldFullNoMb" in xprintffull_nomb.o [6]       56
    "localeconv"                                      8
    "__iar_Locale_lconv_init"                         8
    "__iar_dlib_perthread_access"                     0

Uncalled function
  "dev_airchange_autoTurnOffCb" in user_main.o [1]: 0x1f06e477

  Maximum call chain                             *?* 8 bytes
    (** call graph contains indirect calls (example: "mico_is_timer_running") **)

    "dev_airchange_autoTurnOffCb" in user_main.o [1]
                                                     8
    "mico_is_timer_running"                          0

Uncalled function
  "sensor_ir_delayTurnOffCb" in user_main.o [1]: 0x1f06e4af

  Maximum call chain                            *?* 1 096 bytes
    (** call graph contains indirect calls (example: "mico_is_timer_running") **)

    "sensor_ir_delayTurnOffCb" in user_main.o [1]
                                                       64
    "sensor_linkage_turnon_light_device"              120
    "rs485_device_single_control"                     168
    "Rs485_SendDataPackage"                           352
    "pushAppMainRecvMsgProcess"                        32
    "printf"                                           24
    "_PrintfFullNoMb"                                 168
    "_LdtobFullNoMb" in xprintffull_nomb.o [6]         96
    "_GenldFullNoMb" in xprintffull_nomb.o [6]         56
    "localeconv"                                        8
    "__iar_Locale_lconv_init"                           8
    "__iar_dlib_perthread_access"                       0

Uncalled function
  "wifi_key_button_press_callback" in user_main.o [1]: 0x1f06e26f

  Maximum call chain                            *?* 600 bytes
    (** call graph contains indirect calls (example: "mico_rtos_get_time") **)

    "wifi_key_button_press_callback" in user_main.o [1]
                                                      8
    "wifi_keybutton_press"                          200
    "pushAppMainRecvMsgProcess"                      32
    "printf"                                         24
    "_PrintfFullNoMb"                               168
    "_LdtobFullNoMb" in xprintffull_nomb.o [6]       96
    "_GenldFullNoMb" in xprintffull_nomb.o [6]       56
    "localeconv"                                      8
    "__iar_Locale_lconv_init"                         8
    "__iar_dlib_perthread_access"                     0

Uncalled function
  "zigbee_airchange_delayTurnOffCb" in user_main.o [1]: 0x1f06e28b

  Maximum call chain                             *?* 8 bytes
    (** call graph contains indirect calls (example: "mico_is_timer_running") **)

    "zigbee_airchange_delayTurnOffCb" in user_main.o [1]
                                                     8
    "mico_is_timer_running"                          0

Uncalled function
  "zigbee_ir_lightray_delayTurnOffCb" in user_main.o [1]: 0x1f06e2e3

  Maximum call chain                            *?* 424 bytes
    (** call graph contains indirect calls (example: "mico_is_timer_running") **)

    "zigbee_ir_lightray_delayTurnOffCb" in user_main.o [1]
                                                     64
    "printf"                                         24
    "_PrintfFullNoMb"                               168
    "_LdtobFullNoMb" in xprintffull_nomb.o [6]       96
    "_GenldFullNoMb" in xprintffull_nomb.o [6]       56
    "localeconv"                                      8
    "__iar_Locale_lconv_init"                         8
    "__iar_dlib_perthread_access"                     0

Uncalled function
  "readconfig" in xlink_config.o [1]: 0x1f083ce9

  Maximum call chain                            *?* 32 bytes
    (** call graph contains indirect calls (example: "mico_rtos_lock_mutex") **)

    "readconfig" in xlink_config.o [1]              24
    "__iar_unaligned___aeabi_memcpy"                 0
    "__iar_unaligned___aeabi_memcpy4"                8

Uncalled function
  "writeconfig" in xlink_config.o [1]: 0x1f083cb1

  Maximum call chain                            *?* 424 bytes
    (** call graph contains indirect calls (example: "mico_rtos_lock_mutex") **)

    "writeconfig" in xlink_config.o [1]               0
    "mico_system_context_update"                     24
    "internal_update_config" in mico_system_para_storage.o [1]
                                                     40
    "printf"                                         24
    "_PrintfFullNoMb"                               168
    "_LdtobFullNoMb" in xprintffull_nomb.o [6]       96
    "_GenldFullNoMb" in xprintffull_nomb.o [6]       56
    "localeconv"                                      8
    "__iar_Locale_lconv_init"                         8
    "__iar_dlib_perthread_access"                     0

Uncalled function
  "GetAllDataPiont" in xlink_demo.o [1]: 0x1f074e3b

  Maximum call chain                                 0 bytes

    "GetAllDataPiont" in xlink_demo.o [1]            0

Uncalled function
  "SetDataPiont" in xlink_demo.o [1]: 0x1f074e39

  Maximum call chain                                 0 bytes

    "SetDataPiont" in xlink_demo.o [1]               0

Uncalled function
  "app_status" in xlink_demo.o [1]: 0x1f07482d

  Maximum call chain                            *?* 376 bytes
    (** call graph contains indirect calls (example: "mico_rtos_get_time") **)

    "app_status" in xlink_demo.o [1]                 16
    "printf"                                         24
    "_PrintfFullNoMb"                               168
    "_LdtobFullNoMb" in xprintffull_nomb.o [6]       96
    "_GenldFullNoMb" in xprintffull_nomb.o [6]       56
    "localeconv"                                      8
    "__iar_Locale_lconv_init"                         8
    "__iar_dlib_perthread_access"                     0

Uncalled function
  "time_callback" in xlink_demo.o [1]: 0x1f074abf

  Maximum call chain                            *?* 568 bytes
    (** call graph contains indirect calls (example: "_free") **)

    "time_callback" in xlink_demo.o [1]              88
    "reCalcTime"                                     32
    "calcInterval"                                   40
    "getCurrentTime"                                 48
    "printf"                                         24
    "_PrintfFullNoMb"                               168
    "_LdtobFullNoMb" in xprintffull_nomb.o [6]       96
    "_GenldFullNoMb" in xprintffull_nomb.o [6]       56
    "localeconv"                                      8
    "__iar_Locale_lconv_init"                         8
    "__iar_dlib_perthread_access"                     0

Uncalled function
  "udp_pipe_call" in xlink_demo.o [1]: 0x1f074813

  Maximum call chain                            *?* 392 bytes
    (** call graph contains indirect calls (example: "mico_rtos_unlock_mutex") **)

    "udp_pipe_call" in xlink_demo.o [1]               0
    "pushFlogMsg2FlogCloudQueue"                     32
    "printf"                                         24
    "_PrintfFullNoMb"                               168
    "_LdtobFullNoMb" in xprintffull_nomb.o [6]       96
    "_GenldFullNoMb" in xprintffull_nomb.o [6]       56
    "localeconv"                                      8
    "__iar_Locale_lconv_init"                         8
    "__iar_dlib_perthread_access"                     0

Uncalled function
  "Xlink_tcp_datapoint_send_cb": 0x1f074e43

  Maximum call chain                                 0 bytes

    "Xlink_tcp_datapoint_send_cb"                    0

Uncalled function
  "Xlink_tcp_pipe2_send_cb": 0x1f074e3f

  Maximum call chain                                 0 bytes

    "Xlink_tcp_pipe2_send_cb"                        0

Uncalled function
  "Xlink_tcp_pipe_send_cb": 0x1f074e3d

  Maximum call chain                                 0 bytes

    "Xlink_tcp_pipe_send_cb"                         0

Uncalled function
  "Xlink_udp_pipe_send_cb": 0x1f074e41

  Maximum call chain                                 0 bytes

    "Xlink_udp_pipe_send_cb"                         0

Uncalled function
  "ota_function_thread": 0x1f074ca9

  Maximum call chain                            *?* 2 552 bytes
    (** call graph contains indirect calls (example: "mico_rtos_delete_thread")
                            functions with no stack usage info (example: "XlinkHttpM5dFinalString") **)

    "ota_function_thread"                             328
    "xlinkHttpStartDownFile"                          632
    "xlinkHttpLoop" in xlinkHttp.o [1]              1 232
    "printf"                                           24
    "_PrintfFullNoMb"                                 168
    "_LdtobFullNoMb" in xprintffull_nomb.o [6]         96
    "_GenldFullNoMb" in xprintffull_nomb.o [6]         56
    "localeconv"                                        8
    "__iar_Locale_lconv_init"                           8
    "__iar_dlib_perthread_access"                       0

Uncalled function
  "pipe1_call": 0x1f074809

  Maximum call chain                            *?* 392 bytes
    (** call graph contains indirect calls (example: "mico_rtos_unlock_mutex") **)

    "pipe1_call"                                      0
    "pushFlogMsg2FlogCloudQueue"                     32
    "printf"                                         24
    "_PrintfFullNoMb"                               168
    "_LdtobFullNoMb" in xprintffull_nomb.o [6]       96
    "_GenldFullNoMb" in xprintffull_nomb.o [6]       56
    "localeconv"                                      8
    "__iar_Locale_lconv_init"                         8
    "__iar_dlib_perthread_access"                     0

Uncalled function
  "upgrade_task": 0x1f074d45

  Maximum call chain                            *?* 384 bytes
    (** call graph contains indirect calls (example: "mico_rtos_create_thread") **)

    "upgrade_task"                                   24
    "printf"                                         24
    "_PrintfFullNoMb"                               168
    "_LdtobFullNoMb" in xprintffull_nomb.o [6]       96
    "_GenldFullNoMb" in xprintffull_nomb.o [6]       56
    "localeconv"                                      8
    "__iar_Locale_lconv_init"                         8
    "__iar_dlib_perthread_access"                     0

Uncalled function
  "xlink_domain_loop": 0x1f07509f

  Maximum call chain                            *?* 488 bytes
    (** call graph contains indirect calls (example: "mico_rtos_get_time")
                            functions with no stack usage info (example: "xlink_tcp_send_upgrade") **)

    "xlink_domain_loop"                             104
    "mico_system_power_perform"                      24
    "printf"                                         24
    "_PrintfFullNoMb"                               168
    "_LdtobFullNoMb" in xprintffull_nomb.o [6]       96
    "_GenldFullNoMb" in xprintffull_nomb.o [6]       56
    "localeconv"                                      8
    "__iar_Locale_lconv_init"                         8
    "__iar_dlib_perthread_access"                     0

Uncalled function
  "xlink_function_thread": 0x1f07506d

  Maximum call chain                            *?* 432 bytes
    (** call graph contains indirect calls (example: "mico_rtos_get_time")
                            functions with no stack usage info (example: "XlinkSystemLoop") **)

    "xlink_function_thread"                           8
    "popAppMainSendMsgThread"                        16
    "sendMessageToServer"                            48
    "printf"                                         24
    "_PrintfFullNoMb"                               168
    "_LdtobFullNoMb" in xprintffull_nomb.o [6]       96
    "_GenldFullNoMb" in xprintffull_nomb.o [6]       56
    "localeconv"                                      8
    "__iar_Locale_lconv_init"                         8
    "__iar_dlib_perthread_access"                     0

Uncalled function
  "xlink_notify_cb": 0x1f074e45

  Maximum call chain                                 0 bytes

    "xlink_notify_cb"                                0

Uncalled function
  "xlinkhttpErrorCallBack_t": 0x1f074c0d

  Maximum call chain                            *?* 376 bytes
    (** call graph contains indirect calls (example: "MicoUartSend") **)

    "xlinkhttpErrorCallBack_t"                       16
    "printf"                                         24
    "_PrintfFullNoMb"                               168
    "_LdtobFullNoMb" in xprintffull_nomb.o [6]       96
    "_GenldFullNoMb" in xprintffull_nomb.o [6]       56
    "localeconv"                                      8
    "__iar_Locale_lconv_init"                         8
    "__iar_dlib_perthread_access"                     0

Uncalled function
  "xlinkhttpRecvDataCallBack_t": 0x1f074bc5

  Maximum call chain                            *?* 424 bytes
    (** call graph contains indirect calls (example: "mico_rtos_get_time") **)

    "xlinkhttpRecvDataCallBack_t"                    24
    "upgrade_process"                                40
    "printf"                                         24
    "_PrintfFullNoMb"                               168
    "_LdtobFullNoMb" in xprintffull_nomb.o [6]       96
    "_GenldFullNoMb" in xprintffull_nomb.o [6]       56
    "localeconv"                                      8
    "__iar_Locale_lconv_init"                         8
    "__iar_dlib_perthread_access"                     0

Uncalled function
  "xlinkhttpStaCallBack_t": 0x1f074bc3

  Maximum call chain                                 0 bytes

    "xlinkhttpStaCallBack_t"                         0

Uncalled function
  "uart_zigbee_msg_recv": 0x1f070bc7

  Maximum call chain                            *?* 3 184 bytes
    (** call graph contains recursive functions (example: "cJSON_Delete")
                            indirect calls (example: "mico_rtos_get_time") **)

    "uart_zigbee_msg_recv"                             16
    "uart_zigbee_msg_dispatch"                         48
    "rs485_msg_zcl_zdo"                               560
    "rs485_new_device_joined_success_ack"              80
    "rs485_sensor_add_integradedevice2list"           144
    "sensor_add_ir_lightray_default_linkage" in sensormanager.o [1]
                                                      640
    "parseServerMessage"                              560
    "deleteDeviceFromList"                             96
    "removeDevice" in networkserver.o [1]             128
    "rs485_device_delete_from_net"                    168
    "Rs485_SendDataPackage"                           352
    "pushAppMainRecvMsgProcess"                        32
    "printf"                                           24
    "_PrintfFullNoMb"                                 168
    "_LdtobFullNoMb" in xprintffull_nomb.o [6]         96
    "_GenldFullNoMb" in xprintffull_nomb.o [6]         56
    "localeconv"                                        8
    "__iar_Locale_lconv_init"                           8
    "__iar_dlib_perthread_access"                       0

Uncalled function
  "memcpy": 0x1f08da51

  Maximum call chain                                16 bytes

    "memcpy"                                         8
    "__iar_unaligned___aeabi_memcpy"                 0
    "__iar_unaligned___aeabi_memcpy4"                8

Uncalled function
  "memset": 0x1f08da3d

  Maximum call chain                                16 bytes

    "memset"                                         8
    "__iar_Memset"                                   0
    "__iar_Memset_word"                              8

Uncalled function
  "puts": 0x1f08d6dd

  Maximum call chain                            *?* 136 bytes
    (** call graph contains indirect calls (example: "MicoUartSend") **)

    "puts"                                           16
    "fputs"                                          24
    "_Fwprep"                                         8
    "fseek"                                          16
    "_Fspos"                                         24
    "fflush"                                         24
    "fflushOne" in fflush.o [6]                      16
    "__write"                                         8
    "MicoUartSend"                                    0

Uncalled function
  "__iar_init_vfp": 0x1f098bdd

  Maximum call chain                                 0 bytes

    "__iar_init_vfp"                                 0

Uncalled function
  "abort": 0x1f09897f

  Maximum call chain                                 8 bytes

    "abort"                                          0
    "__exit"                                         8

The following functions make up recursion nest 0, which has no maximum recursion depth specified:

  "parse_object" in cJSON.o [1]: 0x1f07add7
  "parse_value" in cJSON.o [1]: 0x1f07a9f5

The following functions make up recursion nest 1, which has no maximum recursion depth specified:

  "print_array" in cJSON.o [1]: 0x1f07acad
  "print_object" in cJSON.o [1]: 0x1f07af25
  "print_value" in cJSON.o [1]: 0x1f07ab3d

The following functions make up recursion nest 2, which has no maximum recursion depth specified:

  "cJSON_Delete": 0x1f07a4c9

The following functions make up recursion nest 3, which has no maximum recursion depth specified:

  "lh_table_insert": 0x1f0827b9
  "lh_table_resize": 0x1f082701

The following functions appear not to be called and have no stack
usage information:

  "XlinkBuildSubKey": 0x1f096dc9
  "XlinkClientAddclient": 0x1f0969d1
  "XlinkClientByby": 0x1f096d41
  "XlinkClientCheckHeartbeat": 0x1f093081
  "XlinkClientQuit": 0x1f09713d
  "XlinkClientSendDataToAddr": 0x1f092bed
  "XlinkClientSendDataToAllOlineClient": 0x1f092bad
  "XlinkClientSendToIndex": 0x1f093f05
  "XlinkClientcheckclientLogin": 0x1f096cbd
  "XlinkNetInit": 0x1f08d9c9
  "XlinkPorcess_UDP_GetScan": 0x1f0970b9
  "XlinkProcessUdpData": 0x1f095321
  "XlinkSdkAppSetDeviceName": 0x1f096689
  "XlinkSdkDataInit": 0x1f08d915
  "XlinkSystemSetDeviceName": 0x1f093031
  "XlinkTcpInit": 0x1f0935b5
  "XlinkTcpLoop": 0x1f093165
  "XlinkTcpNextWork": 0x1f094935
  "XlinkTcpPing_Clear": 0x1f096671
  "XlinkTcpSendData": 0x1f08d9ed
  "XlinnkClientInit": 0x1f08d9a5
  "__airkiss_lan_pack": 0x1f093869
  "__airkiss_lan_recv": 0x1f093809
  "check_typeOk": 0x1f094a9d
  "check_typeOk_t": 0x1f096645
  "event_tcp_recv_data": 0x1f0933b1
  "event_udp_recv_data": 0x1f093519
  "xlinkClientReSet": 0x1f096d9d
  "xlinkGetMd5": 0x1f092f3d
  "xlink_GetServerTime": 0x1f094885
  "xlink_net_loop": 0x1f08da5d
  "xlink_net_loop_Domain_name": 0x1f08dcf1
  "xlink_net_setSystemTime": 0x1f0970c5
  "xlink_process_set_pwd": 0x1f0966b9
  "xlink_process_tcp_data": 0x1f094ac9
  "xlink_process_tcp_event_res": 0x1f0968cd
  "xlink_process_tcp_notify": 0x1f09693d
  "xsdk_closeTCP": 0x1f09310d
  "xsdk_closeUDP": 0x1f0930f5
  "xsdk_config_init": 0x1f08d719
  "xsdk_read_config": 0x1f092f85
  "xsdk_tiemr_timerout": 0x1f094911
  "xsdk_timer_set": 0x1f094901

The following functions appear to be called, but have no stack
usage information:

  "XlinkGetServerTime": 0x1f083e25
  "XlinkGetSystemTime": 0x1f084201
  "XlinkHttpM5dFinalString": 0x1f08d601
  "XlinkHttpMd5Update": 0x1f08d62d
  "XlinkPorcess_UDP_Enable": 0x1f083e39
  "XlinkReSetSDK": 0x1f08cfc5
  "XlinkSendTcpPipe2_cb": 0x1f08d0ad
  "XlinkSendTcpPipe_cb": 0x1f08d179
  "XlinkSendUdpPipe_cb": 0x1f08d245
  "XlinkSystemGetDeviceID": 0x1f091aa1
  "XlinkSystemInit": 0x1f083d65
  "XlinkSystemLoop": 0x1f084109
  "XlinkSystemTcpLoop": 0x1f084239
  "airkiss_lan_pack": 0x1f091ad5
  "airkiss_lan_recv": 0x1f091ad1
  "xlinkGetHostByName": 0x1f08d631
  "xlinkHttpMd5Init": 0x1f08d4c9
  "xlink_tcp_send_upgrade": 0x1f083e45
  "xsdk_config_save": 0x1f083fc1
  "xsdk_write_config": 0x1f083ee5

The following functions perform unknown indirect calls:

  "ApListAdvCallback": 0x1f08b0cf
  "ApListCallback": 0x1f08b0b5
  "CloseAirkiss": 0x1f077129
  "CloseEasylink": 0x1f07711d
  "CloseEasylink2": 0x1f077111
  "HTTPHeaderClear": 0x1f09168d
  "HTTP_ConnectHost" in xlinkHttp.o [1]: 0x1f08391b
  "InitMd5": 0x1f0772f3
  "Md5Final": 0x1f07730b
  "Md5Update": 0x1f0772ff
  "MicoFlashErase": 0x1f07714d
  "MicoFlashGetInfo": 0x1f077141
  "MicoFlashRead": 0x1f07716b
  "MicoFlashWrite": 0x1f077159
  "MicoGpioEnableIRQ": 0x1f0771b7
  "MicoGpioInitialize": 0x1f07717b
  "MicoGpioOutputHigh": 0x1f077187
  "MicoGpioOutputLow": 0x1f077193
  "MicoGpioOutputTrigger": 0x1f07719f
  "MicoSystemReboot": 0x1f07733d
  "MicoSystemStandBy": 0x1f07734f
  "MicoUartGetLengthInBuffer": 0x1f0771ef
  "MicoUartInitialize": 0x1f0771c7
  "MicoUartRecv": 0x1f0771df
  "MicoUartSend": 0x1f0771d3
  "MicoWdgInitialize": 0x1f077379
  "MicoWdgReload": 0x1f077385
  "NetCallback": 0x1f08b127
  "OpenEasylink": 0x1f077105
  "RptConfigmodeRslt": 0x1f08b141
  "SocketReadHTTPBody": 0x1f09077d
  "SocketReadHTTPHeader": 0x1f0904e1
  "StartAdvNetwork": 0x1f0770bd
  "StartNetwork": 0x1f0770b1
  "WifiStatusHandler": 0x1f08b0e9
  "_calloc": 0x1f07586b
  "_free": 0x1f075861
  "_malloc": 0x1f07584d
  "_realloc": 0x1f075857
  "accept": 0x1f08d53b
  "arp_Command": 0x1f07723b
  "array_list_free": 0x1f082b4f
  "array_list_put_idx": 0x1f082b8b
  "asctime": 0x1f07735b
  "bind": 0x1f08d517
  "button_timeout_handler" in button.o [1]: 0x1f091b61
  "cJSON_AddItemToObject": 0x1f07b1b5
  "cJSON_CreateArray": 0x1f07b2cb
  "cJSON_CreateNumber": 0x1f07b255
  "cJSON_CreateObject": 0x1f07b2e7
  "cJSON_CreateString": 0x1f07b28f
  "cJSON_Delete": 0x1f07a4c9
  "cJSON_ParseWithOpts": 0x1f07a971
  "cJSON_strdup" in cJSON.o [1]: 0x1f07a4a1
  "close": 0x1f08d5c7
  "connect": 0x1f08d523
  "connected_ap_info": 0x1f08b103
  "dns_Command": 0x1f07725b
  "dns_ip_set": 0x1f08b193
  "driver_state_Command": 0x1f0772cb
  "easylink_user_data_result": 0x1f08b15b
  "getNetPara": 0x1f0770c9
  "get_last_reset_reason": 0x1f07736f
  "gethostbyname": 0x1f08d5f1
  "handle_input" in mico_cli.o [1]: 0x1f0860c9
  "ifconfig_Command": 0x1f07722b
  "inet_addr": 0x1f08d5d3
  "inet_ntoa": 0x1f08d5df
  "join_fail": 0x1f08b1c7
  "json_object_array_entry_free" in json_object.o [1]: 0x1f074599
  "json_object_array_to_json_string" in json_object.o [1]: 0x1f0744f5
  "json_object_lh_entry_free" in json_object.o [1]: 0x1f0741f1
  "json_object_object_to_json_string" in json_object.o [1]: 0x1f074167
  "json_object_put": 0x1f07411d
  "json_object_to_json_string": 0x1f074133
  "lh_table_insert": 0x1f0827b9
  "lh_table_lookup_entry": 0x1f08283f
  "listen": 0x1f08d52f
  "memory_dump_Command": 0x1f07729b
  "memory_set_Command": 0x1f0772ab
  "memory_show_Command": 0x1f07728b
  "memp_dump_Command": 0x1f0772bb
  "mico_create_event_fd": 0x1f0690a5
  "mico_deinit_timer": 0x1f069091
  "mico_delete_event_fd": 0x1f0690af
  "mico_gpio_input_get": 0x1f0771ab
  "mico_init_timer": 0x1f069075
  "mico_is_timer_running": 0x1f06909b
  "mico_memory_info": 0x1f077327
  "mico_rtos_create_thread": 0x1f068fc9
  "mico_rtos_deinit_mutex": 0x1f06902d
  "mico_rtos_deinit_queue": 0x1f069051
  "mico_rtos_deinit_semaphore": 0x1f06900d
  "mico_rtos_delay_milliseconds": 0x1f0690d9
  "mico_rtos_delete_thread": 0x1f068fdd
  "mico_rtos_get_semaphore": 0x1f069005
  "mico_rtos_get_time": 0x1f0690b9
  "mico_rtos_init_mutex": 0x1f069015
  "mico_rtos_init_queue": 0x1f069035
  "mico_rtos_init_semaphore": 0x1f068ff5
  "mico_rtos_is_queue_empty": 0x1f069059
  "mico_rtos_is_queue_full": 0x1f069061
  "mico_rtos_lock_mutex": 0x1f06901d
  "mico_rtos_pop_from_queue": 0x1f069049
  "mico_rtos_push_to_queue": 0x1f069041
  "mico_rtos_set_semaphore": 0x1f068ffd
  "mico_rtos_stack_overflow": 0x1f08b1f7
  "mico_rtos_thread_force_awake": 0x1f068fed
  "mico_rtos_thread_join": 0x1f068fe5
  "mico_rtos_unlock_mutex": 0x1f069025
  "mico_start_timer": 0x1f069081
  "mico_stop_timer": 0x1f069089
  "mico_time_get_time": 0x1f0690c1
  "moc_app_main": 0x1f098601
  "mxchipInit": 0x1f077317
  "parse_object" in cJSON.o [1]: 0x1f07add7
  "parse_string" in cJSON.o [1]: 0x1f07a715
  "parse_value" in cJSON.o [1]: 0x1f07a9f5
  "ping_Command": 0x1f07724b
  "print_array" in cJSON.o [1]: 0x1f07acad
  "print_object" in cJSON.o [1]: 0x1f07af25
  "print_string_ptr" in cJSON.o [1]: 0x1f07a88d
  "print_value" in cJSON.o [1]: 0x1f07ab3d
  "ps_enable": 0x1f077135
  "read": 0x1f08d5a3
  "recv": 0x1f08d593
  "recvfrom": 0x1f08d5af
  "runTask": 0x1f07b81d
  "select": 0x1f08d547
  "send": 0x1f08d55f
  "sendNotifySYSWillPowerOff": 0x1f08b1b1
  "sendto": 0x1f08d57b
  "setTimerStatus": 0x1f07b6d9
  "setsockopt": 0x1f08d501
  "sig_func1sec": 0x1f07b439
  "socket": 0x1f08d4f5
  "socket_connected": 0x1f08b179
  "socket_show_Command": 0x1f07727b
  "switch_active_firmware": 0x1f077365
  "task_Command": 0x1f07726b
  "uap_stop": 0x1f0770f9
  "wifi_power_down": 0x1f0770d5
  "wifi_power_up": 0x1f0770e1
  "wifi_reboot_event": 0x1f08b1e1
  "wifidebug_Command": 0x1f07720b
  "wifiscan_Command": 0x1f07721b
  "wifistate_Command": 0x1f0771fb
  "wlan_disconnect": 0x1f0770ed
  "wlan_driver_version": 0x1f0772db
  "wlan_get_mac_address": 0x1f0772e7
  "worker_thread_main" in mico_rtos_common.o [1]: 0x1f06b129
  "write": 0x1f08d56f
  "xlinkHttpLoop" in xlinkHttp.o [1]: 0x1f083633


*******************************************************************************
*** MODULE SUMMARY
***

    Module                      ro code  ro data  rw data
    ------                      -------  -------  -------
E:\MiCO_B_v3.2.3-1\Projects\MW3xx\demo\EWARM\MK3031\Obj: [1]
    CheckSumUtils.o                 120
    HTTPUtils.o                   5 568
    MICOAppEntrance.o             2 152                 4
    MICOBonjour.o                   944
    OTAupgrade.o                  1 016               136
    Retarget.o                       64
    RingBufferUtils.o                24
    SocketUtils.o                   856
    StringUtils.o                 2 518
    URLUtils.o                      362
    Xlink_PassThroughResolve.o      980                 4
    airkiss_discovery.o           1 256                 8
    appmainmsgqueue.o             4 800                32
    arraylist.o                     212
    button.o                        208       54      200
    cJSON.o                       3 804        3       12
    config_server.o               7 136                28
    config_server_menu.o          1 168
    devicemanager.o              18 156
    json_object.o                 1 520       38        8
    json_tokener.o                3 892        2        4
    json_util.o                     228
    linkagemanager.o             14 660
    linkhash.o                      844
    mico_cli.o                    4 172      772       88
    mico_config.o                              2        8
    mico_mdns.o                   4 072        8      160
    mico_rtos.o                     296                 4
    mico_rtos_common.o              924        5       32
    mico_socket.o                   268
    mico_system_init.o            1 644
    mico_system_monitor.o           740                40
    mico_system_notification.o      968                80
    mico_system_para_storage.o    4 696                 8
    mico_system_power_daemon.o      952                28
    mico_system_time.o               92                12
    moc_api.o                       756
    moc_main.o                      432      164       12
    moc_platform_common.o             4
    networkserver.o               6 280
    platform.o                      276
    platform_core.o                  12
    platform_nsclock.o              246                20
    printbuf.o                      326                 1
    rs485_comm.o                    436                 1
    rs485_uart.o                  2 196               548
    rs485parse.o                  2 484
    rs485sensorparse.o            2 624                21
    sensormanager.o               9 472                20
    system_discovery.o              912
    system_easylink.o             7 052       80       20
    system_easylink_delegate.o      150                16
    system_misc.o                 3 592
    tftp_ota.o                    2 620                 4
    tftpc.o                       1 848
    timer_task.o                  2 952                 8
    timercontrol.o               10 600
    timerctrl.o                   1 412                92
    timerinterexec.o              1 696
    user_data_store.o               756                 4
    user_main.o                   2 220               180
    user_uart.o                   1 180             2 076
    wifi_led.o                      884
    xlinkHttp.o                   1 932                 8
    xlink_DataPointProcess.o         36             1 200
    xlink_config.o                  204                 4
    xlink_demo.o                  4 448               491
    zigbeeparse.o                10 144                 8
    -----------------------------------------------------
    Total:                      171 494    1 128    5 630

command line: [2]
    -----------------------------------------------------
    Total:

Lib_MFi_WAC.Cortex-M4F.IAR.release.a: [3]
    -----------------------------------------------------
    Total:

Lib_xlink_app_v34700.Cortex-M4.GCC.release.a: [4]
    xlink_client.o                1 112      287      896
    xlink_data.o                    192       10      148
    xlink_md5.o                   2 092        5
    xlink_net.o                   2 368    1 849    1 135
    xlink_process_tcp_data.o      2 944    1 735       10
    xlink_process_udp_data.o      3 496    1 088        2
    xlink_system.o                  796      169       64
    xlink_tcp_client.o            1 832      234       16
    xsdk_config.o                 1 444      127      172
    -----------------------------------------------------
    Total:                       16 276    5 504    2 443

MiCODriverMFiAuth.a: [5]
    -----------------------------------------------------
    Total:

dl7M_tlf.a: [6]
    XShHandles.o                    224               128
    abort.o                           6
    div.o                            14
    errno.o                          12        1        4
    exit.o                            4
    fclose.o                        122
    fflush.o                        176
    fputc.o                          86
    fputs.o                         152
    fseek.o                          34
    getzone.o                        10
    isxxx.o                          40
    localeconv.o                    108       37      136
    localtim.o                      182        3        8
    memcpy.o                         12
    memset.o                         20
    mktime.o                        208
    printf.o                         36
    putchar.o                        12
    puts.o                           60
    rand.o                          224       38      140
    setlocale.o                      68       31      116
    snprintf.o                       68
    sprintf.o                        52
    srand.o                          32
    sscanf.o                         36
    strcasecmp.o                     70
    strdup.o                         24
    strncasecmp.o                    78
    strncmp.o                        42
    strnlen.o                        22
    strrchr.o                        24
    strstr.o                         44
    tolower.o                        20
    vprintf.o                        24
    vsnprint.o                       60
    vsprintf.o                       44
    xcloseall.o                      88
    xfgpos.o                         12
    xfiles.o                                  61      384
    xfofind.o                       124
    xfspos.o                        214
    xfwprep.o                       182
    xgetdst.o                       356
    xgettime.o                       66
    xisdst.o                        308        1        4
    xisdstData.o                               2        4
    xlocale_c.o                      54
    xprintffull_nomb.o            3 474
    xprout.o                         22
    xscanffull_nomb.o             2 948
    xsnprout.o                       26
    xsprout.o                        10
    xsscin.o                         30
    xstoflt.o                       440
    xstol.o                         136
    xstoll.o                        164
    xstopfx.o                       308
    xstoul.o                        408
    xstoull.o                       432
    xstoxflt.o                      536
    xsyslock_nop.o                    4
    xtls.o                            2
    xttotm.o                        392       12       44
    -----------------------------------------------------
    Total:                       13 186      186      968

libairkiss.a: [7]
    airlink.o                       448      100
    -----------------------------------------------------
    Total:                          448      100

m7M_tls.a: [8]
    DblAdd.o                        232
    DblCmpEq.o                       32
    DblCmpGe.o                       46
    DblCmpLe.o                       46
    DblDiv.o                        582
    DblMul.o                        418
    DblSub.o                        384
    DblToFlt.o                      144
    DblToI32.o                       88
    I32ToDbl.o                       48
    floor.o                         110
    fpinit_M.o                       34
    pow.o                         2 240
    xdint.o                         126
    xdnorm.o                         66
    xdscale.o                       280
    xdtento.o                       512
    xdtest.o                         64
    xdunscal.o                       86
    xexp.o                          710
    xlog.o                          176
    xstold.o                        360
    -----------------------------------------------------
    Total:                        6 784

rt7M_tl.a: [9]
    ABImemclr.o                       6
    ABImemclr4.o                      6
    ABImemcpy_unaligned.o           118
    ABImemmove_unaligned.o          120
    ABImemset.o                     102
    ABImemset48.o                    50
    I64DivMod.o                     238
    I64DivZer.o                       2
    cexit.o                          14
    cstart_closeall.o
    data_init.o                      40
    memchr.o                         88
    memcmp_unaligned.o               98
    packbits_init.o                 208
    strchr.o                         22
    strcmp_unaligned.o               66
    strcpy_unaligned.o               68
    strlen.o                         54
    strncpy_unaligned.o             108
    zero_init3.o                     34
    -----------------------------------------------------
    Total:                        1 442

shb_l.a: [10]
    close.o                          26
    exit.o                           20
    lseek.o                          76
    remove.o                         22
    -----------------------------------------------------
    Total:                          144

    Gaps                             46        8        5
    Linker created                            52
---------------------------------------------------------
    Grand Total:                209 820    6 978    9 046


*******************************************************************************
*** ENTRY LIST
***

Entry                      Address   Size  Type      Object
-----                      -------   ----  ----      ------
.iar.init_table$$Base   0x1f098c00          --   Gb  - Linker created -
.iar.init_table$$Limit  0x1f098c34          --   Gb  - Linker created -
ApListAdvCallback       0x1f08b0cf   0x1a  Code  Gb  mico_system_notification.o [1]
ApListCallback          0x1f08b0b5   0x1a  Code  Gb  mico_system_notification.o [1]
BonjourNotify_SYSWillPoerOffHandler
                        0x1f08aab1   0x18  Code  Gb  mico_mdns.o [1]
BonjourNotify_WifiStatusHandler
                        0x1f08aa81   0x30  Code  Gb  mico_mdns.o [1]
CRC16_Final             0x1f0796cd   0x1c  Code  Gb  CheckSumUtils.o [1]
CRC16_Init              0x1f079691    0x6  Code  Gb  CheckSumUtils.o [1]
CRC16_Update            0x1f079697   0x36  Code  Gb  CheckSumUtils.o [1]
ChangeEndian16          0x1f06eb81    0xa  Code  Gb  zigbeeparse.o [1]
CloseAirkiss            0x1f077129    0xc  Code  Gb  moc_api.o [1]
CloseEasylink           0x1f07711d    0xc  Code  Gb  moc_api.o [1]
CloseEasylink2          0x1f077111    0xc  Code  Gb  moc_api.o [1]
ConfigIncommingJsonMessageUAP
                        0x1f0853d9  0x292  Code  Gb  system_easylink.o [1]
CrcContex               0x0011d780    0x4  Data  Gb  xlink_demo.o [1]
CreateSimpleHTTPMessageNoCopy
                        0x1f091819  0x124  Code  Gb  HTTPUtils.o [1]
CreateSimpleHTTPOKMessage
                        0x1f091777   0x84  Code  Gb  HTTPUtils.o [1]
DataToHexStringWithSpaces
                        0x1f08979b   0x74  Code  Gb  StringUtils.o [1]
EasyLinkNotify_EasyLinkCompleteHandler
                        0x1f084401  0x1bc  Code  Lc  system_easylink.o [1]
EasyLinkNotify_EasyLinkGetExtraDataHandler
                        0x1f084691  0x34c  Code  Lc  system_easylink.o [1]
EasyLinkNotify_WifiStatusHandler
                        0x1f084259  0x100  Code  Lc  system_easylink.o [1]
FOTA_WifiStatusHandler  0x1f08faa1   0x12  Code  Lc  tftp_ota.o [1]
FOTA_WifiStatusHandler_t
                        0x1f083125    0x2  Code  Lc  OTAupgrade.o [1]
GetAllDataPiont         0x1f074e3b    0x2  Code  Lc  xlink_demo.o [1]
HEXBUF                  0x1f098db1   0x10  Data  Gb  xlink_tcp_client.o [4]
HTTPGetHeaderField      0x1f091381  0x116  Code  Gb  HTTPUtils.o [1]
HTTPHeaderClear         0x1f09168d   0xca  Code  Gb  HTTPUtils.o [1]
HTTPHeaderCreateWithCallback
                        0x1f0914d7   0xe0  Code  Gb  HTTPUtils.o [1]
HTTPHeaderDestory       0x1f091757   0x20  Code  Gb  HTTPUtils.o [1]
HTTPHeaderMatchURL      0x1f0914c3    0xc  Code  Gb  HTTPUtils.o [1]
HTTPHeaderParse         0x1f090e99  0x414  Code  Gb  HTTPUtils.o [1]
HTTPScanFHeaderValue    0x1f091497   0x2c  Code  Gb  HTTPUtils.o [1]
HTTP_ConnectHost        0x1f08391b  0x124  Code  Lc  xlinkHttp.o [1]
HTTP_Get_IP_PORT        0x1f08386d   0xa8  Code  Lc  xlinkHttp.o [1]
HexDump                 0x1f06912d   0x3a  Code  Gb  user_uart.o [1]
IDMapping               0x1f0797a1   0x36  Code  Gb  timer_task.o [1]
InStream_Read           0x1f0988af   0x22  Code  Lc  packbits_init.o [9]
InitMd5                 0x1f0772f3    0xc  Code  Gb  moc_api.o [1]
LoadInt                 0x1f07792b   0x6e  Code  Lc  xprintffull_nomb.o [6]
MICOReadConfiguration   0x1f06a4b9  0x7f8  Code  Gb  mico_system_para_storage.o [1]
MICOStartBonjourService
                        0x1f075ef9  0x220  Code  Gb  MICOBonjour.o [1]
MICOStartSystemMonitor  0x1f085de5   0xbe  Code  Gb  mico_system_monitor.o [1]
Md5Final                0x1f07730b    0xc  Code  Gb  moc_api.o [1]
Md5Update               0x1f0772ff    0xc  Code  Gb  moc_api.o [1]
MicoFlashErase          0x1f07714d    0xc  Code  Gb  moc_api.o [1]
MicoFlashGetInfo        0x1f077141    0xc  Code  Gb  moc_api.o [1]
MicoFlashRead           0x1f07716b   0x10  Code  Gb  moc_api.o [1]
MicoFlashWrite          0x1f077159   0x12  Code  Gb  moc_api.o [1]
MicoGpioEnableIRQ       0x1f0771b7   0x10  Code  Gb  moc_api.o [1]
MicoGpioInitialize      0x1f07717b    0xc  Code  Gb  moc_api.o [1]
MicoGpioOutputHigh      0x1f077187    0xc  Code  Gb  moc_api.o [1]
MicoGpioOutputLow       0x1f077193    0xc  Code  Gb  moc_api.o [1]
MicoGpioOutputTrigger   0x1f07719f    0xc  Code  Gb  moc_api.o [1]
MicoMcuPowerSaveConfig  0x1f077391    0x2  Code  Gb  moc_api.o [1]
MicoRfLed               0x1f08b04b    0x2  Code  Gb  platform.o [1]
MicoSysLed              0x1f08b03b   0x10  Code  Gb  platform.o [1]
MicoSystemReboot        0x1f07733d    0xc  Code  Gb  moc_api.o [1]
MicoSystemStandBy       0x1f07734f    0xc  Code  Gb  moc_api.o [1]
MicoUartGetLengthInBuffer
                        0x1f0771ef    0xc  Code  Gb  moc_api.o [1]
MicoUartInitialize      0x1f0771c7    0xc  Code  Gb  moc_api.o [1]
MicoUartRecv            0x1f0771df   0x10  Code  Gb  moc_api.o [1]
MicoUartSend            0x1f0771d3    0xc  Code  Gb  moc_api.o [1]
MicoWdgInitialize       0x1f077379    0xc  Code  Gb  moc_api.o [1]
MicoWdgReload           0x1f077385    0xc  Code  Gb  moc_api.o [1]
NetCallback             0x1f08b127   0x1a  Code  Gb  mico_system_notification.o [1]
Notify_list             0x0011c578   0x50  Data  Gb  mico_system_notification.o [1]
OpenEasylink            0x1f077105    0xc  Code  Gb  moc_api.o [1]
PlatformEasyLinkButtonClickedCallback
                        0x1f07c399   0x40  Code  Gb  mico_system_power_daemon.o [1]
PlatformEasyLinkButtonLongPressedCallback
                        0x1f07c3d9   0x60  Code  Gb  mico_system_power_daemon.o [1]
PlatformStandbyButtonClickedCallback
                        0x1f07c439   0x54  Code  Gb  mico_system_power_daemon.o [1]
RecvUartPkt             0x1f069401   0x86  Code  Gb  user_uart.o [1]
Region$$Table$$Base     0x1f098c00          --   Gb  - Linker created -
Region$$Table$$Limit    0x1f098c34          --   Gb  - Linker created -
RptConfigmodeRslt       0x1f08b141   0x1a  Code  Gb  mico_system_notification.o [1]
Rs485RecvUartPkt        0x1f08bcfd  0x18c  Code  Gb  rs485_uart.o [1]
Rs485_Init              0x1f07963d   0x18  Code  Gb  rs485_comm.o [1]
Rs485_SendData          0x1f079631    0xc  Code  Gb  rs485_comm.o [1]
Rs485_SendDataPackage   0x1f0794f9  0x130  Code  Gb  rs485_comm.o [1]
Send_wifi_status        0x1f07470f   0x32  Code  Gb  xlink_demo.o [1]
SetDataPiont            0x1f074e39    0x2  Code  Lc  xlink_demo.o [1]
SetTimer                0x1f06b1cf   0x7c  Code  Gb  mico_rtos_common.o [1]
SocketClose             0x1f08e2db   0x14  Code  Gb  SocketUtils.o [1]
SocketReadHTTPBody      0x1f09077d  0x6ae  Code  Gb  HTTPUtils.o [1]
SocketReadHTTPHeader    0x1f0904e1  0x260  Code  Gb  HTTPUtils.o [1]
SocketSend              0x1f08e099  0x242  Code  Gb  SocketUtils.o [1]
StartAdvNetwork         0x1f0770bd    0xc  Code  Gb  moc_api.o [1]
StartNetwork            0x1f0770b1    0xc  Code  Gb  moc_api.o [1]
SubKeyErrorRes          0x1f096e2d   0x3e  Code  Lc  xlink_process_udp_data.o [4]
TimerCtrlCallBack       0x1f0797d7  0x18c  Code  Gb  timer_task.o [1]
URLParseComponents      0x1f09369d  0x16a  Code  Gb  URLUtils.o [1]
UnSetTimer              0x1f06b24b   0x1a  Code  Gb  mico_rtos_common.o [1]
UpdateCRC16             0x1f079671   0x20  Code  Gb  CheckSumUtils.o [1]
VSNScanF                0x1f089941  0x60e  Code  Gb  StringUtils.o [1]
WifiStatusHandler       0x1f08b0e9   0x1a  Code  Gb  mico_system_notification.o [1]
XlinkBuildSubKey        0x1f096dc9   0x64  Code  Gb  xsdk_config.o [4]
XlinkClientAddclient    0x1f0969d1  0x168  Code  Gb  xlink_client.o [4]
XlinkClientByby         0x1f096d41   0x1c  Code  Gb  xlink_client.o [4]
XlinkClientCheckHeartbeat
                        0x1f093081   0x74  Code  Gb  xlink_client.o [4]
XlinkClientQuit         0x1f09713d   0x28  Code  Gb  xlink_client.o [4]
XlinkClientSendDataToAddr
                        0x1f092bed   0x34  Code  Gb  xlink_client.o [4]
XlinkClientSendDataToAllOlineClient
                        0x1f092bad   0x40  Code  Gb  xlink_client.o [4]
XlinkClientSendToIndex  0x1f093f05   0x20  Code  Gb  xlink_client.o [4]
XlinkClientcheckclientLogin
                        0x1f096cbd   0x84  Code  Gb  xlink_client.o [4]
XlinkGetMACHex          0x1f09660d   0x38  Code  Lc  xlink_tcp_client.o [4]
XlinkGetServerTime      0x1f083e25   0x14  Code  Gb  xlink_system.o [4]
XlinkGetSystemTime      0x1f084201   0x38  Code  Gb  xlink_system.o [4]
XlinkHttpM5dFinalString
                        0x1f08d601   0x2c  Code  Gb  xlink_md5.o [4]
XlinkHttpMd5Update      0x1f08d62d    0x4  Code  Gb  xlink_md5.o [4]
XlinkMD5Final           0x1f092d55   0x6c  Code  Lc  xlink_md5.o [4]
XlinkMD5Transform       0x1f094089  0x694  Code  Lc  xlink_md5.o [4]
XlinkMD5Update          0x1f092dc1   0x88  Code  Lc  xlink_md5.o [4]
XlinkNetInit            0x1f08d9c9   0x24  Code  Gb  xlink_net.o [4]
XlinkPorcess_UDP_Enable
                        0x1f083e39    0xc  Code  Gb  xlink_process_udp_data.o [4]
XlinkPorcess_UDP_GetScan
                        0x1f0970b9    0xc  Code  Gb  xlink_process_udp_data.o [4]
XlinkProcessUdpData     0x1f095321  0xb2c  Code  Gb  xlink_process_udp_data.o [4]
XlinkProcessUdpProbe_Datapoint_V3.isra.1
                        0x1f096b39  0x184  Code  Lc  xlink_process_udp_data.o [4]
XlinkReSetSDK           0x1f08cfc5   0x40  Code  Gb  xsdk_config.o [4]
XlinkReadProductIDKEY   0x1f083d17   0x4a  Code  Gb  xlink_config.o [1]
XlinkSdkAppSetDeviceName
                        0x1f096689   0x30  Code  Gb  xlink_data.o [4]
XlinkSdkDataInit        0x1f08d915   0x90  Code  Gb  xlink_data.o [4]
XlinkSendTcpPipe2_cb    0x1f08d0ad   0xcc  Code  Gb  xlink_tcp_client.o [4]
XlinkSendTcpPipe_cb     0x1f08d179   0xcc  Code  Gb  xlink_tcp_client.o [4]
XlinkSendUdpPipe_cb     0x1f08d245   0xd0  Code  Gb  xlink_client.o [4]
XlinkSystemGetDeviceID  0x1f091aa1   0x30  Code  Gb  xlink_system.o [4]
XlinkSystemInit         0x1f083d65   0xc0  Code  Gb  xlink_system.o [4]
XlinkSystemLoop         0x1f084109   0xf8  Code  Gb  xlink_system.o [4]
XlinkSystemSetDeviceName
                        0x1f093031   0x50  Code  Gb  xlink_system.o [4]
XlinkSystemTcpLoop      0x1f084239   0x20  Code  Gb  xlink_system.o [4]
XlinkTcpInit            0x1f0935b5   0x20  Code  Gb  xlink_tcp_client.o [4]
XlinkTcpLoop            0x1f093165  0x24c  Code  Gb  xlink_tcp_client.o [4]
XlinkTcpNextWork        0x1f094935   0x38  Code  Gb  xlink_tcp_client.o [4]
XlinkTcpPing_Clear      0x1f096671   0x18  Code  Gb  xlink_tcp_client.o [4]
XlinkTcpSendData        0x1f08d9ed   0x50  Code  Gb  xlink_tcp_client.o [4]
XlinkTcpWorkActivation  0x1f09496d  0x130  Code  Lc  xlink_tcp_client.o [4]
Xlink_TCP_ConnectPort   0x0011c1f8    0x4  Data  Gb  xlink_net.o [4]
Xlink_tcp_datapoint_send_cb
                        0x1f074e43    0x2  Code  Gb  xlink_demo.o [1]
Xlink_tcp_pipe2_send_cb
                        0x1f074e3f    0x2  Code  Gb  xlink_demo.o [1]
Xlink_tcp_pipe_send_cb  0x1f074e3d    0x2  Code  Gb  xlink_demo.o [1]
Xlink_udp_pipe_send_cb  0x1f074e41    0x2  Code  Gb  xlink_demo.o [1]
XlinnkClientInit        0x1f08d9a5   0x24  Code  Gb  xlink_client.o [4]
_AK_LIT_ENDIAN          0x1f098dc4    0x4  Data  Lc  airlink.o [7]
_Close_all              0x1f093add   0x58  Code  Gb  xcloseall.o [6]
_Files                  0x0011c1d8   0x20  Data  Gb  xfiles.o [6]
_Fofree                 0x1f096e6d   0x78  Code  Gb  xfofind.o [6]
_Fspos                  0x1f096f6f   0xd6  Code  Gb  xfspos.o [6]
_Fwprep                 0x1f09471d   0xb6  Code  Gb  xfwprep.o [6]
_GenldFullNoMb          0x1f077ea3  0x24c  Code  Lc  xprintffull_nomb.o [6]
_GetN                   0x1f092029   0x22  Code  Lc  xscanffull_nomb.o [6]
_Getdst                 0x1f093f4d  0x13c  Code  Gb  xgetdst.o [6]
_GetfldFullNoMb         0x1f0921f1  0x10a  Code  Lc  xscanffull_nomb.o [6]
_GetfloatFullNoMb       0x1f0926b3  0x4e4  Code  Lc  xscanffull_nomb.o [6]
_GetintFullNoMb         0x1f0924b7  0x1f6  Code  Lc  xscanffull_nomb.o [6]
_GetstrFullNoMb         0x1f0922fb  0x1b6  Code  Lc  xscanffull_nomb.o [6]
_Gettime                0x1f091bdf   0x42  Code  Gb  xgettime.o [6]
_IsdstStr               0x0011c2d0    0x4  Data  Gb  setlocale.o [6]
_Isdst_olddst           0x0011c3f4    0x4  Data  Lc  xisdst.o [6]
_Isdst_rules            0x0011c3f8    0x4  Data  Gb  xisdstData.o [6]
_LdtobFullNoMb          0x1f077aa1  0x3fc  Code  Lc  xprintffull_nomb.o [6]
_Led_EL_timer           0x0011c8e8    0xc  Data  Lc  system_easylink_delegate.o [1]
_Led_EL_timer_initialized
                        0x0011c8e4    0x1  Data  Lc  system_easylink_delegate.o [1]
_LitobFullNoMb          0x1f077999  0x106  Code  Lc  xprintffull_nomb.o [6]
_LocalConfigRespondInComingMessage
                        0x1f0882b5  0xac0  Code  Lc  config_server.o [1]
_LocaleC_isalpha        0x1f08cf8d   0x16  Code  Gb  xlocale_c.o [6]
_LocaleC_isspace        0x1f08cfa3   0x14  Code  Gb  xlocale_c.o [6]
_LocaleC_tolower        0x1f08cfb7    0xc  Code  Gb  xlocale_c.o [6]
_LocaleForCat           0x1f08cf6f   0x12  Code  Gb  setlocale.o [6]
_LocaleReturnString     0x0011c2f0   0x50  Data  Lc  setlocale.o [6]
_Locale_Profile         0x0011c2d4   0x1c  Data  Gb  setlocale.o [6]
_Locale_aeabi_lconv     0x0011c3bc   0x38  Data  Gb  localeconv.o [6]
_Locale_lconv           0x0011c36c   0x50  Data  Gb  localeconv.o [6]
_Localtime_oldzone      0x0011c2c4    0x4  Data  Lc  localtim.o [6]
_Localtime_tzoff        0x0011c2c8    0x4  Data  Lc  localtim.o [6]
_Nnl                    0x1f097245    0xc  Code  Gb  xfgpos.o [6]
_PrintfFullNoMb         0x1f0773a5  0x580  Code  Gb  xprintffull_nomb.o [6]
_Prout                  0x1f098d05   0x16  Code  Gb  xprout.o [6]
_PutcharsFullNoMb       0x1f0780ef   0x2e  Code  Lc  xprintffull_nomb.o [6]
_Rand_idx               0x0011c240    0x4  Data  Lc  rand.o [6]
_Rand_rv                0x0011c244   0x80  Data  Lc  rand.o [6]
_Randinit               0x0011c238    0x1  Data  Gb  rand.o [6]
_Randseed               0x0011c23c    0x4  Data  Gb  rand.o [6]
_SNProut                0x1f078137   0x1a  Code  Gb  xsnprout.o [6]
_SProut                 0x1f082653    0xa  Code  Gb  xsprout.o [6]
_SScin                  0x1f06b3d3   0x1e  Code  Gb  xsscin.o [6]
_ScanfFullNoMb          0x1f092065  0x18c  Code  Gb  xscanffull_nomb.o [6]
_Stoflt                 0x1f096019  0x1b8  Code  Gb  xstoflt.o [6]
_Stopfx                 0x1f095ee3  0x134  Code  Gb  xstopfx.o [6]
_Stoxflt                0x1f0963d1  0x1e2  Code  Gb  xstoxflt.o [6]
_Ttotm_ts               0x0011c340   0x2c  Data  Lc  xttotm.o [6]
_Tzoff                  0x1f08c475   0x94  Code  Gb  localtim.o [6]
_TzoneStr               0x0011c2cc    0x4  Data  Gb  setlocale.o [6]
_UngetN                 0x1f09204b   0x1a  Code  Lc  xscanffull_nomb.o [6]
__FUNCTION__.7540       0x1f08b61e   0x11  Data  Lc  xsdk_config.o [4]
__FUNCTION__.7748       0x1f08b62f   0x11  Data  Lc  xlink_net.o [4]
__FUNCTION__.7754       0x1f098d78   0x13  Data  Lc  xlink_net.o [4]
__FUNCTION__.7762       0x1f07819a   0x16  Data  Lc  xlink_process_tcp_data.o [4]
__FUNCTION__.7768       0x1f098d8b   0x13  Data  Lc  xlink_net.o [4]
__FUNCTION__.7770       0x1f098cd6   0x17  Data  Lc  xlink_process_tcp_data.o [4]
__FUNCTION__.7779       0x1f089f86   0x19  Data  Lc  xlink_net.o [4]
__FUNCTION__.7789       0x1f08b66e   0x11  Data  Lc  xlink_tcp_client.o [4]
__FUNCTION__.7791       0x1f098d28   0x14  Data  Lc  xlink_net.o [4]
__FUNCTION__.7793       0x1f089f9f   0x19  Data  Lc  xlink_process_tcp_data.o [4]
__FUNCTION__.7799       0x1f098ca6   0x18  Data  Lc  xlink_process_tcp_data.o [4]
__FUNCTION__.7811       0x1f08b4ab   0x15  Data  Lc  xlink_client.o [4]
__FUNCTION__.7812       0x1f098d3c   0x14  Data  Lc  xlink_net.o [4]
__FUNCTION__.7819       0x1f0982c5   0x1f  Data  Lc  xlink_process_tcp_data.o [4]
__FUNCTION__.7849       0x1f0737e2   0x1a  Data  Lc  xlink_process_tcp_data.o [4]
__FUNCTION__.7850       0x1f098c70   0x1b  Data  Lc  xlink_net.o [4]
__FUNCTION__.7857       0x1f079792    0xe  Data  Lc  xlink_net.o [4]
__FUNCTION__.7861       0x1f098d50   0x14  Data  Lc  xlink_process_udp_data.o [4]
__FUNCTION__.7864       0x1f074666   0x1a  Data  Lc  xlink_process_tcp_data.o [4]
__FUNCTION__.7870       0x1f098cbe   0x18  Data  Lc  xlink_process_tcp_data.o [4]
__FUNCTION__.7898       0x1f098d64   0x14  Data  Lc  xlink_tcp_client.o [4]
__FUNCTION__.7906       0x1f098c54   0x1c  Data  Lc  xlink_client.o [4]
__FUNCTION__.7911       0x1f098ced   0x17  Data  Lc  xlink_process_udp_data.o [4]
__FUNCTION__.7936       0x1f08b492   0x19  Data  Lc  xlink_process_udp_data.o [4]
__FUNCTION__.7953       0x1f098d9e   0x13  Data  Lc  xlink_process_udp_data.o [4]
__FUNCTION__.7969       0x1f098c8b   0x1b  Data  Lc  xlink_process_udp_data.o [4]
__FUNCTION__.7993       0x1f0696ee   0x22  Data  Lc  xlink_process_udp_data.o [4]
__FUNCTION__.8013       0x1f0781e6   0x16  Data  Lc  xlink_process_udp_data.o [4]
__aeabi_cdcmpeq         0x1f0829c1         Code  Gb  DblCmpEq.o [8]
__aeabi_cdcmple         0x1f08b5f1         Code  Gb  DblCmpLe.o [8]
__aeabi_cdrcmple        0x1f08b641         Code  Gb  DblCmpGe.o [8]
__aeabi_d2f             0x1f08247d         Code  Gb  DblToFlt.o [8]
__aeabi_d2iz            0x1f082ac5         Code  Gb  DblToI32.o [8]
__aeabi_d2uiz           0x1f082af1         Code  Gb  DblToI32.o [8]
__aeabi_dadd            0x1f08c52d         Code  Gb  DblAdd.o [8]
__aeabi_ddiv            0x1f08b91d         Code  Gb  DblDiv.o [8]
__aeabi_dmul            0x1f0822d1         Code  Gb  DblMul.o [8]
__aeabi_dsub            0x1f08b79d         Code  Gb  DblSub.o [8]
__aeabi_errno_addr      0x1f07b3c9    0x6  Code  Gb  errno.o [6]
__aeabi_i2d             0x1f07a429         Code  Gb  I32ToDbl.o [8]
__aeabi_ldiv0           0x1f091bcd         Code  Gb  I64DivZer.o [9]
__aeabi_memclr          0x1f06b3cd         Code  Gb  ABImemclr.o [9]
__aeabi_memclr4         0x1f069711         Code  Gb  ABImemclr4.o [9]
__aeabi_memset          0x1f07972d         Code  Gb  ABImemset.o [9]
__aeabi_ui2d            0x1f07a43d         Code  Gb  I32ToDbl.o [8]
__aeabi_uldivmod        0x1f08b4c1         Code  Gb  I64DivMod.o [9]
__airkiss_lan_pack      0x1f093869  0x13c  Code  Gb  airlink.o [7]
__airkiss_lan_recv      0x1f093809   0x60  Code  Gb  airlink.o [7]
__airkiss_strlen        0x1f095e4d   0x10  Code  Lc  airlink.o [7]
__cexit_closeall        0x1f09201b         Code  Gb  cexit.o [9]
__close                 0x1f096ee9   0x1a  Code  Gb  close.o [10]
__cstart_closeall       0x1f098dc8         Data  Gb  cstart_closeall.o [9]
__exit                  0x1f093b35   0x14  Code  Gb  exit.o [10]
__getzone               0x1f091bd5    0x6  Code  Gb  getzone.o [6]
__iar_Daysto32          0x1f08d315   0x3a  Code  Gb  xttotm.o [6]
__iar_Dint              0x1f091c21   0x7e  Code  Gb  xdint.o [8]
__iar_Dnorm             0x1f08b5af   0x42  Code  Gb  xdnorm.o [8]
__iar_Dscale            0x1f08b685  0x118  Code  Gb  xdscale.o [8]
__iar_Dtentox           0x1f09622d  0x13e  Code  Gb  xdtento.o [8]
__iar_Dtest             0x1f093a9b   0x30  Code  Gb  xdtest.o [8]
__iar_Dunscale          0x1f096f19   0x56  Code  Gb  xdunscal.o [8]
__iar_Errno             0x0011c234    0x4  Data  Gb  errno.o [6]
__iar_Exp               0x1f091d51  0x2be  Code  Gb  xexp.o [8]
__iar_Isdst32           0x1f092c21  0x134  Code  Gb  xisdst.o [6]
__iar_Locale_lconv_init
                        0x1f08bb65   0x3a  Code  Gb  localeconv.o [6]
__iar_Lockfilelock      0x1f092e49    0x2  Code  Gb  xsyslock_nop.o [6]
__iar_Logpoly           0x1f091ca1   0x76  Code  Gb  xlog.o [8]
__iar_Memchr            0x1f07b371         Code  Gb  memchr.o [9]
__iar_Memset            0x1f07972d         Code  Gb  ABImemset.o [9]
__iar_Memset4_word      0x1f078169         Code  Gb  ABImemset48.o [9]
__iar_Memset8_word      0x1f078169         Code  Gb  ABImemset48.o [9]
__iar_Memset_word       0x1f079735         Code  Gb  ABImemset.o [9]
__iar_Stderr            0x0011c198   0x40  Data  Gb  xfiles.o [6]
__iar_Stdin             0x0011c118   0x40  Data  Gb  xfiles.o [6]
__iar_Stdout            0x0011c158   0x40  Data  Gb  xfiles.o [6]
__iar_Stold             0x1f093f01    0x4  Code  Gb  xstold.o [8]
__iar_Stoldx            0x1f093d9d  0x14e  Code  Gb  xstold.o [8]
__iar_Stoll             0x1f093be9    0x4  Code  Gb  xstoll.o [6]
__iar_Stollx            0x1f093b49   0xa0  Code  Gb  xstoll.o [6]
__iar_Stolx             0x1f07375b   0x88  Code  Gb  xstol.o [6]
__iar_Stoul             0x1f06e191    0x4  Code  Gb  xstoul.o [6]
__iar_Stoull            0x1f093d49    0x4  Code  Gb  xstoull.o [6]
__iar_Stoullx           0x1f093bed  0x156  Code  Gb  xstoull.o [6]
__iar_Stoulx            0x1f06e04d  0x13e  Code  Gb  xstoul.o [6]
__iar_Strchr            0x1f08b47d         Code  Gb  strchr.o [9]
__iar_Strrchr           0x1f0690f1   0x18  Code  Gb  strrchr.o [6]
__iar_Strstr            0x1f08d49d   0x2c  Code  Gb  strstr.o [6]
__iar_Ttotm32           0x1f08d34f  0x112  Code  Gb  xttotm.o [6]
__iar_TzoneStr_init     0x1f08cf49   0x26  Code  Gb  setlocale.o [6]
__iar_Unlockfilelock    0x1f092e4b    0x2  Code  Gb  xsyslock_nop.o [6]
__iar_d2uiz             0x1f082afd         Code  Gb  DblToI32.o [8]
__iar_dadd              0x1f08c541         Code  Gb  DblAdd.o [8]
__iar_data_init3        0x1f098799   0x28  Code  Gb  data_init.o [9]
__iar_dlib_perthread_access
                        0x1f08c52b    0x2  Code  Gb  xtls.o [6]
__iar_dsub              0x1f08b7b1         Code  Gb  DblSub.o [8]
__iar_dsubStart         0x1f08b7c3         Code  Gb  DblSub.o [8]
__iar_floor             0x1f08cee9         Code  Gb  floor.o [8]
__iar_floorl            0x1f08cee9         Code  Gb  floor.o [8]
__iar_init_vfp          0x1f098bdd         Code  Gb  fpinit_M.o [8]
__iar_packbits_init3    0x1f0988d1   0xae  Code  Gb  packbits_init.o [9]
__iar_sh_Discard        0x1f097165   0x44  Code  Gb  XShHandles.o [6]
__iar_sh_Move           0x1f0971af   0x4c  Code  Gb  XShHandles.o [6]
__iar_sh_Pos            0x1f0971fb   0x44  Code  Gb  XShHandles.o [6]
__iar_strcmp            0x1f074625         Code  Gb  strcmp_unaligned.o [9]
__iar_ui2d              0x1f07a441         Code  Gb  I32ToDbl.o [8]
__iar_unaligned___aeabi_memcpy
                        0x1f0695c9         Code  Gb  ABImemcpy_unaligned.o [9]
__iar_unaligned___aeabi_memcpy4
                        0x1f0695e9         Code  Gb  ABImemcpy_unaligned.o [9]
__iar_unaligned___aeabi_memcpy8
                        0x1f0695e9         Code  Gb  ABImemcpy_unaligned.o [9]
__iar_unaligned___aeabi_memmove
                        0x1f093625         Code  Gb  ABImemmove_unaligned.o [9]
__iar_unaligned___aeabi_memmove4
                        0x1f093625         Code  Gb  ABImemmove_unaligned.o [9]
__iar_unaligned___aeabi_memmove8
                        0x1f093625         Code  Gb  ABImemmove_unaligned.o [9]
__iar_unaligned_memcmp  0x1f06968d         Code  Gb  memcmp_unaligned.o [9]
__iar_unaligned_strcmp  0x1f074625         Code  Gb  strcmp_unaligned.o [9]
__iar_unaligned_strcpy  0x1f0796e9         Code  Gb  strcpy_unaligned.o [9]
__iar_unaligned_strncpy
                        0x1f074681         Code  Gb  strncpy_unaligned.o [9]
__iar_vfp_floor         0x1f08ced9         Code  Gb  floor.o [8]
__iar_vfp_floorl        0x1f08ced9         Code  Gb  floor.o [8]
__iar_vfp_pow           0x1f08ca9b   0x18  Code  Gb  pow.o [8]
__iar_zero_init3        0x1f069717   0x22  Code  Gb  zero_init3.o [9]
__localtime32           0x1f08c511   0x1a  Code  Gb  localtim.o [6]
__lseek                 0x1f097251   0x4c  Code  Gb  lseek.o [10]
__mktime32              0x1f082fe9   0xd0  Code  Gb  mktime.o [6]
__strdup                0x1f0896ad   0x2e  Code  Gb  StringUtils.o [1]
__strdup_trans_dot      0x1f0896db   0x48  Code  Gb  StringUtils.o [1]
__write                 0x1f075879   0x14  Code  Gb  Retarget.o [1]
_appid                  0x0011c440    0x4  Data  Lc  airkiss_discovery.o [1]
_bonjour_announce_handler
                        0x0011c0fc    0x4  Data  Lc  mico_mdns.o [1]
_bonjour_generate_txt_record
                        0x1f08566b  0x12e  Code  Lc  system_easylink.o [1]
_bonjour_send_anounce_thread
                        0x1f08a527   0x62  Code  Gb  mico_mdns.o [1]
_bonjour_thread         0x1f08ad2d  0x18a  Code  Lc  mico_mdns.o [1]
_calloc                 0x1f07586b    0xa  Code  Gb  Retarget.o [1]
_clean_record_resource  0x1f08a589   0x36  Code  Lc  mico_mdns.o [1]
_exit                   0x1f092019         Code  Gb  cexit.o [9]
_free                   0x1f075861    0xa  Code  Gb  Retarget.o [1]
_led_EL_Timeout_handler
                        0x1f08e001    0x6  Code  Lc  system_easylink_delegate.o [1]
_malloc                 0x1f07584d    0xa  Code  Gb  Retarget.o [1]
_ram_end_ {Abs}         0x00128000          --   Gb  command line/config [2]
_realloc                0x1f075857    0xa  Code  Gb  Retarget.o [1]
_started                0x0011c43c    0x1  Data  Lc  airkiss_discovery.o [1]
_sys_power_state_change_handler
                        0x1f07c4a1   0x3c  Code  Lc  mico_system_power_daemon.o [1]
_sys_will_power_off_handler
                        0x1f07c4dd   0x7a  Code  Lc  mico_system_power_daemon.o [1]
_timed_sys_power_state_change
                        0x0011c5d4   0x18  Data  Lc  mico_system_power_daemon.o [1]
_watchdog_reload_timer  0x0011c56c    0xc  Data  Lc  mico_system_monitor.o [1]
_watchdog_reload_timer_handler
                        0x1f085ed7   0x1c  Code  Lc  mico_system_monitor.o [1]
abort                   0x1f09897f    0x6  Code  Gb  abort.o [6]
accept                  0x1f08d53b    0xc  Code  Gb  mico_socket.o [1]
addTask                 0x1f079db1   0x9e  Code  Gb  timer_task.o [1]
addr.7801               0x0011da08   0x10  Data  Lc  xlink_net.o [4]
airkiss_broadcast_thread
                        0x1f085241  0x18e  Code  Lc  system_easylink.o [1]
airkiss_discovery_start
                        0x1f089085   0x7e  Code  Gb  airkiss_discovery.o [1]
airkiss_lan_pack        0x1f091ad5   0x10  Code  Gb  airlink.o [7]
airkiss_lan_recv        0x1f091ad1    0x4  Code  Gb  airlink.o [7]
airkiss_random          0x0011c8d3    0x1  Data  Lc  system_easylink.o [1]
ak_discovery_thread     0x1f089105  0x316  Code  Lc  airkiss_discovery.o [1]
akconf                  0x1f08955c   0x10  Data  Gb  airkiss_discovery.o [1]
allocTimerNodeFd        0x1f07b539   0xd2  Code  Gb  timerctrl.o [1]
alterTask               0x1f079e55   0xac  Code  Gb  timer_task.o [1]
appRestoreDefault_callback
                        0x1f0687c7   0x24  Code  Gb  MICOAppEntrance.o [1]
app_msg_queue_context   0x0011c444   0x18  Data  Lc  appmainmsgqueue.o [1]
app_msg_queue_init      0x1f0781fd  0x1ae  Code  Lc  appmainmsgqueue.o [1]
app_recv_send_msg_queue_init
                        0x1f078f71  0x108  Code  Gb  appmainmsgqueue.o [1]
app_stack_size          0x0011c0e0    0x4  Data  Gb  mico_config.o [1]
app_status              0x1f07482d  0x206  Code  Lc  xlink_demo.o [1]
application_start       0x1f068a6d  0x2d6  Code  Gb  MICOAppEntrance.o [1]
application_thread_main
                        0x1f0985e9   0x18  Code  Lc  moc_main.o [1]
appuart_getch           0x1f0692e7   0xf8  Code  Lc  user_uart.o [1]
appuart_rcvbuf          0x0011ce24  0x40c  Data  Lc  user_uart.o [1]
arp_Command             0x1f07723b   0x10  Code  Gb  moc_api.o [1]
array_list_add          0x1f082be7    0x6  Code  Gb  arraylist.o [1]
array_list_free         0x1f082b4f   0x2a  Code  Gb  arraylist.o [1]
array_list_get_idx      0x1f082b79   0x12  Code  Gb  arraylist.o [1]
array_list_length       0x1f082bed    0x4  Code  Gb  arraylist.o [1]
array_list_new          0x1f082b1d   0x32  Code  Gb  arraylist.o [1]
array_list_put_idx      0x1f082b8b   0x5c  Code  Gb  arraylist.o [1]
asctime                 0x1f07735b    0xa  Code  Gb  moc_api.o [1]
available_services      0x0011c4bc   0x80  Data  Lc  mico_mdns.o [1]
bind                    0x1f08d517    0xc  Code  Gb  mico_socket.o [1]
bonjour_instance        0x0011c0e8    0x1  Data  Lc  mico_mdns.o [1]
bonjour_mutex           0x0011c0f0    0x4  Data  Lc  mico_mdns.o [1]
bonjour_send_record     0x1f08a921  0x13e  Code  Gb  mico_mdns.o [1]
broadcast_rs485_cmdpayload
                        0x1f07d105   0x80  Code  Gb  networkserver.o [1]
broadcast_server_data_to_allapp
                        0x1f074741   0x5a  Code  Gb  xlink_demo.o [1]
broadcast_zigbee_cmdpayload
                        0x1f07d1d5   0xfc  Code  Gb  networkserver.o [1]
broadcasterr_flag       0x0011c8b9    0x1  Data  Gb  xlink_demo.o [1]
buf                     0x0011c100    0x4  Data  Gb  mico_mdns.o [1]
built_ins               0x1f086fb8  0x150  Data  Lc  mico_cli.o [1]
button_init             0x1f091b6f   0x56  Code  Gb  button.o [1]
button_irq_handler      0x1f091afd   0x64  Code  Lc  button.o [1]
button_irq_handler_array
                        0x0011c0a0   0x14  Data  Gb  button.o [1]
button_timeout_handler  0x1f091b61    0xe  Code  Lc  button.o [1]
button_timeout_handler_array
                        0x0011c0b4   0x14  Data  Gb  button.o [1]
cJSON_AddItemToArray    0x1f07b19d   0x18  Code  Gb  cJSON.o [1]
cJSON_AddItemToObject   0x1f07b1b5   0x2a  Code  Gb  cJSON.o [1]
cJSON_CreateArray       0x1f07b2cb   0x1c  Code  Gb  cJSON.o [1]
cJSON_CreateNumber      0x1f07b255   0x3a  Code  Gb  cJSON.o [1]
cJSON_CreateObject      0x1f07b2e7   0x1c  Code  Gb  cJSON.o [1]
cJSON_CreateString      0x1f07b28f   0x3c  Code  Gb  cJSON.o [1]
cJSON_Delete            0x1f07a4c9   0x3c  Code  Gb  cJSON.o [1]
cJSON_GetArrayItem      0x1f07b171   0x10  Code  Gb  cJSON.o [1]
cJSON_GetArraySize      0x1f07b161   0x10  Code  Gb  cJSON.o [1]
cJSON_GetObjectItem     0x1f07b181   0x1c  Code  Gb  cJSON.o [1]
cJSON_Parse             0x1f07a9e9    0x6  Code  Gb  cJSON.o [1]
cJSON_ParseWithOpts     0x1f07a971   0x74  Code  Gb  cJSON.o [1]
cJSON_PrintUnformatted  0x1f07a9ef    0x2  Code  Gb  cJSON.o [1]
cJSON_ReplaceItemInArray
                        0x1f07b1df   0x3c  Code  Gb  cJSON.o [1]
cJSON_ReplaceItemInObject
                        0x1f07b21b   0x3a  Code  Gb  cJSON.o [1]
cJSON_free              0x0011c0d0    0x4  Data  Lc  cJSON.o [1]
cJSON_malloc            0x0011c0cc    0x4  Data  Lc  cJSON.o [1]
cJSON_strcasecmp        0x1f07a459   0x48  Code  Lc  cJSON.o [1]
cJSON_strdup            0x1f07a4a1   0x28  Code  Lc  cJSON.o [1]
calcInterval            0x1f0799eb   0xc8  Code  Gb  timer_task.o [1]
charchangehex           0x1f06ea91   0xba  Code  Gb  zigbeeparse.o [1]
checkDeviceExist        0x1f065025   0xb2  Code  Gb  devicemanager.o [1]
check_ir_lightray_linakge_ctrl_condistions
                        0x1f07ebed  0x372  Code  Gb  linkagemanager.o [1]
check_linakge_ctrl_condistions
                        0x1f07efa9  0x24c  Code  Gb  linkagemanager.o [1]
check_network_state_is_traffic_block
                        0x1f07479b   0x6e  Code  Gb  xlink_demo.o [1]
check_soft_version_upgrade
                        0x1f075017   0x56  Code  Gb  xlink_demo.o [1]
check_typeOk            0x1f094a9d   0x2c  Code  Gb  xlink_net.o [4]
check_typeOk_t          0x1f096645   0x2c  Code  Gb  xlink_net.o [4]
checkneedreboot_cnt     0x0011c8ba    0x1  Data  Gb  xlink_demo.o [1]
clearInvalidTimerItem   0x1f06b6e5  0x128  Code  Gb  timercontrol.o [1]
clear_all_device_recode_inflash
                        0x1f064bf1   0x94  Code  Gb  devicemanager.o [1]
clear_all_device_restore_factory_set
                        0x1f067d31   0x9e  Code  Gb  devicemanager.o [1]
clear_all_rs485_device  0x1f067999  0x170  Code  Gb  devicemanager.o [1]
clear_sensor_linkage_flag
                        0x1f07b977   0x1e  Code  Gb  rs485sensorparse.o [1]
cli_exit_handler        0x1f0868b1    0x2  Code  Lc  mico_cli.o [1]
cli_init                0x1f086a43   0xa4  Code  Gb  mico_cli.o [1]
cli_main                0x1f0863fb   0xc8  Code  Lc  mico_cli.o [1]
cli_printf              0x1f086b01   0x44  Code  Gb  mico_cli.o [1]
cli_register_command    0x1f086953   0x50  Code  Gb  mico_cli.o [1]
cli_rx_buffer           0x0011c4ac   0x10  Data  Lc  mico_cli.o [1]
cli_rx_data             0x0011c468    0x4  Data  Lc  mico_cli.o [1]
cli_uart_config         0x1f086fac    0xc  Data  Lc  mico_cli.o [1]
close                   0x1f08d5c7    0xc  Code  Gb  mico_socket.o [1]
closeTimerNodeFd        0x1f07b677   0x62  Code  Gb  timerctrl.o [1]
close_all_rs485_device  0x1f067bc1  0x114  Code  Gb  devicemanager.o [1]
close_client_sem        0x0011c410   0x14  Data  Lc  config_server.o [1]
close_listener_sem      0x0011c424    0x4  Data  Lc  config_server.o [1]
config_server_create_bool_cell
                        0x1f073d8d   0xa2  Code  Gb  config_server_menu.o [1]
config_server_create_number_cell
                        0x1f073cd5   0xa8  Code  Gb  config_server_menu.o [1]
config_server_create_sector
                        0x1f073ba5   0x86  Code  Gb  config_server_menu.o [1]
config_server_create_string_cell
                        0x1f073c2b   0xaa  Code  Gb  config_server_menu.o [1]
config_server_delegate_recv
                        0x1f0689e3   0x76  Code  Gb  MICOAppEntrance.o [1]
config_server_delegate_report
                        0x1f068837  0x1a4  Code  Gb  MICOAppEntrance.o [1]
config_server_start     0x1f0874a5   0xde  Code  Gb  config_server.o [1]
connect                 0x1f08d523    0xc  Code  Gb  mico_socket.o [1]
connected_ap_info       0x1f08b103   0x24  Code  Gb  mico_system_notification.o [1]
context                 0x0011c000   0xa0  Data  Lc  button.o [1]
csta                    0x0011d76c    0x1  Data  Lc  xlink_demo.o [1]
cstaCount               0x0011d76d    0x1  Data  Lc  xlink_demo.o [1]
current_utc_time        0x0011c400    0x8  Data  Lc  mico_system_time.o [1]
datap_int_buf           0x0011d234  0x4b0  Data  Gb  xlink_DataPointProcess.o [1]
dayOfMonth              0x0011c1fc   0x30  Data  Lc  xlink_system.o [4]
delTask                 0x1f079caf  0x102  Code  Gb  timer_task.o [1]
delet_dev_from_scenelist
                        0x1f0680e9   0xce  Code  Gb  devicemanager.o [1]
deleteDeviceFromList    0x1f07d885  0x1f0  Code  Gb  networkserver.o [1]
dev_airchange_autoTurnOffCb
                        0x1f06e477   0x26  Code  Lc  user_main.o [1]
device_light_one_report_attribute_update
                        0x1f065f65  0x180  Code  Gb  devicemanager.o [1]
device_light_three_report_attribute_update
                        0x1f0662e1  0x1ac  Code  Gb  devicemanager.o [1]
device_light_two_report_attribute_update
                        0x1f066125  0x186  Code  Gb  devicemanager.o [1]
device_logout_update_flag
                        0x1f06564f  0x182  Code  Gb  devicemanager.o [1]
device_onoffline_update_flag
                        0x1f06554f   0xf8  Code  Gb  devicemanager.o [1]
digits                  0x1f06e194   0x28  Data  Lc  xstoul.o [6]
digits                  0x1f093d4c   0x28  Data  Lc  xstoull.o [6]
div                     0x1f08bbd1    0xe  Code  Gb  div.o [6]
dmul                    0x1f0961d1   0x5a  Code  Lc  xdtento.o [8]
dns_Command             0x1f07725b   0x10  Code  Gb  moc_api.o [1]
dns_compare_name_to_string
                        0x1f08a2af   0x88  Code  Lc  mico_mdns.o [1]
dns_ip_set              0x1f08b193   0x1e  Code  Gb  mico_system_notification.o [1]
dns_write_record        0x1f08a3a9   0xce  Code  Lc  mico_mdns.o [1]
dns_write_string        0x1f08a337   0x72  Code  Lc  mico_mdns.o [1]
dns_write_uint16        0x1f08a4d7   0x12  Code  Lc  mico_mdns.o [1]
dp_mem_init             0x1f082fc5   0x1e  Code  Gb  xlink_DataPointProcess.o [1]
driver_state_Command    0x1f0772cb   0x10  Code  Gb  moc_api.o [1]
easylinkIndentifier     0x0011c8d4    0x4  Data  Lc  system_easylink.o [1]
easylink_connect_sem    0x0011c8e0    0x4  Data  Lc  system_easylink.o [1]
easylink_sem            0x0011c8dc    0x4  Data  Lc  system_easylink.o [1]
easylink_success        0x0011c8d0    0x1  Data  Lc  system_easylink.o [1]
easylink_thread         0x1f084d0d  0x526  Code  Lc  system_easylink.o [1]
easylink_thread_force_exit
                        0x0011c8d1    0x1  Data  Lc  system_easylink.o [1]
easylink_thread_handler
                        0x0011c8d8    0x4  Data  Lc  system_easylink.o [1]
easylink_user_data_result
                        0x1f08b15b   0x1e  Code  Gb  mico_system_notification.o [1]
ebuf                    0x0011d8e8   0x50  Data  Lc  xfiles.o [6]
echo_cmd_handler        0x1f086827   0x8a  Code  Lc  mico_cli.o [1]
ep                      0x0011c0c8    0x4  Data  Lc  cJSON.o [1]
err_msg                 0x1f08f944  0x118  Data  Lc  tftpc.o [1]
event_tcp_recv_data     0x1f0933b1  0x168  Code  Gb  xlink_net.o [4]
event_udp_recv_data     0x1f093519   0x9c  Code  Gb  xlink_net.o [4]
exc_Queue               0x0011c94c    0x8  Data  Lc  timerctrl.o [1]
exit                    0x1f08d085    0x4  Code  Gb  exit.o [6]
fclose                  0x1f095e69   0x7a  Code  Gb  fclose.o [6]
fflush                  0x1f09484b   0x34  Code  Gb  fflush.o [6]
fflushOne               0x1f0947d5   0x76  Code  Lc  fflush.o [6]
fileLength              0x0011d770    0x4  Data  Gb  xlink_demo.o [1]
file_totallen           0x0011d774    0x4  Data  Gb  xlink_demo.o [1]
findChunkedDataLength   0x1f091325   0x54  Code  Gb  HTTPUtils.o [1]
find_record_by_service  0x1f08a4e9   0x3e  Code  Lc  mico_mdns.o [1]
firstByteMark           0x1f07a884    0x8  Data  Lc  cJSON.o [1]
floor                   0x1f08cee9         Code  Gb  floor.o [8]
floorl                  0x1f08cee9         Code  Gb  floor.o [8]
formatMACAddr           0x1f0895b1   0xdc  Code  Gb  StringUtils.o [1]
fputc                   0x1f092ee5   0x56  Code  Gb  fputc.o [6]
fputs                   0x1f092e4d   0x98  Code  Gb  fputs.o [6]
fseek                   0x1f0965e9   0x22  Code  Gb  fseek.o [6]
g_AllSta                0x0011d6e4    0x4  Data  Gb  xlink_demo.o [1]
g_RecvDataBuffer        0x0011da18    0x4  Data  Lc  xlink_net.o [4]
g_app_context           0x0011c5ec    0x4  Data  Lc  MICOAppEntrance.o [1]
g_cur_zb_sensor_had_joined_flag
                        0x0011c8cc    0x4  Data  Lc  sensormanager.o [1]
g_isWork                0x0011df1b    0x1  Data  Lc  xlink_net.o [4]
g_maxfd                 0x0011da1c    0x4  Data  Lc  xlink_net.o [4]
g_tcpConnectDelayTime   0x0011c22c    0x4  Data  Lc  xlink_net.o [4]
g_xlink_client          0x0011da20  0x380  Data  Gb  xlink_client.o [4]
g_xlink_hostNameOrIp    0x0011c230    0x4  Data  Gb  xlink_net.o [4]
g_xlink_info            0x0011dda0   0x80  Data  Gb  xlink_data.o [4]
g_xlink_proTest         0x0011de20   0x10  Data  Gb  xlink_data.o [4]
g_xlink_udp_scan_en     0x0011df1c    0x1  Data  Lc  xlink_process_udp_data.o [4]
g_xlink_user_config     0x0011de30    0x4  Data  Gb  xlink_data.o [4]
getCRC8                 0x1f0794bd   0x3c  Code  Gb  rs485_comm.o [1]
getCurrentTime          0x1f079963   0x88  Code  Gb  timer_task.o [1]
getDeviceListInfo       0x1f07ddb5  0x3ac  Code  Gb  networkserver.o [1]
getGatewayRs485Device   0x1f0650dd   0xba  Code  Gb  devicemanager.o [1]
getMacAddress           0x1f06e1e5    0x6  Code  Gb  user_main.o [1]
getNetPara              0x1f0770c9    0xc  Code  Gb  moc_api.o [1]
getSceneListInfo        0x1f07db45  0x1ba  Code  Gb  networkserver.o [1]
getSensorDeviceId       0x1f0712c3   0x8a  Code  Gb  sensormanager.o [1]
getSensorListInfo       0x1f07d315  0x2cc  Code  Gb  networkserver.o [1]
get_app_context         0x1f068a59    0x6  Code  Gb  MICOAppEntrance.o [1]
get_device_mac          0x1f0651a3   0xb0  Code  Gb  devicemanager.o [1]
get_device_param_info   0x1f0649d1  0x1b0  Code  Gb  devicemanager.o [1]
get_input               0x1f086357   0xa4  Code  Lc  mico_cli.o [1]
get_last_reset_reason   0x1f07736f    0xa  Code  Gb  moc_api.o [1]
get_mac                 0x1f074a3b   0x84  Code  Gb  xlink_demo.o [1]
get_mac_buf             0x0011d764    0x8  Data  Gb  xlink_demo.o [1]
get_sys_context         0x1f069dd9    0x2  Code  Gb  mico_system_para_storage.o [1]
get_version             0x1f086695  0x18e  Code  Lc  mico_cli.o [1]
gethostbyname           0x1f08d5f1    0xc  Code  Gb  mico_socket.o [1]
getint                  0x1f093f25   0x28  Code  Lc  xgetdst.o [6]
glinkage_param          0x0011c8a4   0x14  Data  Gb  rs485sensorparse.o [1]
gsequenceNumber         0x0011df1a    0x1  Data  Lc  rs485_comm.o [1]
gzigbee_sensor_linkage_param
                        0x0011c8bc   0x10  Data  Gb  sensormanager.o [1]
handle_input            0x1f0860c9  0x1d8  Code  Lc  mico_cli.o [1]
handshakeErrorRes.isra.0.constprop.5
                        0x1f09696d   0x64  Code  Lc  xlink_process_udp_data.o [4]
heap_start              0x0011e354    0x4  Data  Lc  moc_main.o [1]
heap_start$$Base        0x0011e354          --   Gb  - Linker created -
heap_start$$Limit       0x0011e358          --   Gb  - Linker created -
help_command            0x1f0868b3   0xa0  Code  Lc  mico_cli.o [1]
ifconfig_Command        0x1f07722b   0x10  Code  Gb  moc_api.o [1]
inet_addr               0x1f08d5d3    0xc  Code  Gb  mico_socket.o [1]
inet_ntoa               0x1f08d5df   0x12  Code  Gb  mico_socket.o [1]
initTimer               0x1f07b4f1   0x48  Code  Gb  timerctrl.o [1]
init_platform           0x1f08afa1   0x9a  Code  Gb  platform.o [1]
init_wifi_connect_status
                        0x1f0746f5   0x1a  Code  Gb  xlink_demo.o [1]
internal_Pow            0x1f08c619  0x478  Code  Lc  pow.o [8]
internal_update_config  0x1f069f85  0x33a  Code  Lc  mico_system_para_storage.o [1]
isSystemInited          0x0011df1d    0x1  Data  Lc  xlink_system.o [4]
is_config_server_established
                        0x0011c40c    0x1  Data  Gb  config_server.o [1]
is_recalctime           0x0011d8a4    0x4  Data  Lc  xlink_demo.o [1]
isalpha                 0x1f07b335   0x14  Code  Gb  isxxx.o [6]
isspace                 0x1f07b349   0x14  Code  Gb  isxxx.o [6]
isupgrade               0x0011d77c    0x4  Data  Lc  xlink_demo.o [1]
join_fail               0x1f08b1c7   0x1a  Code  Gb  mico_system_notification.o [1]
json_escape_str         0x1f074035   0xde  Code  Lc  json_object.o [1]
json_hex_chars          0x0011c0d8    0x4  Data  Gb  json_object.o [1]
json_number_chars       0x0011c0d4    0x4  Data  Gb  json_object.o [1]
json_object_array_add   0x1f0745fb    0x6  Code  Gb  json_object.o [1]
json_object_array_delete
                        0x1f0745a9    0xc  Code  Lc  json_object.o [1]
json_object_array_entry_free
                        0x1f074599   0x10  Code  Lc  json_object.o [1]
json_object_array_to_json_string
                        0x1f0744f5   0x5e  Code  Lc  json_object.o [1]
json_object_boolean_to_json_string
                        0x1f0742a7   0x16  Code  Lc  json_object.o [1]
json_object_double_to_json_string
                        0x1f074425   0x14  Code  Lc  json_object.o [1]
json_object_generic_delete
                        0x1f07412d    0x6  Code  Lc  json_object.o [1]
json_object_get         0x1f074113    0xa  Code  Gb  json_object.o [1]
json_object_get_boolean
                        0x1f0742e9   0x48  Code  Gb  json_object.o [1]
json_object_get_int     0x1f074377   0x76  Code  Gb  json_object.o [1]
json_object_get_object  0x1f074275   0x10  Code  Gb  json_object.o [1]
json_object_get_string  0x1f0744e5   0x10  Code  Gb  json_object.o [1]
json_object_int_to_json_string
                        0x1f074331   0x14  Code  Lc  json_object.o [1]
json_object_lh_entry_free
                        0x1f0741f1   0x20  Code  Lc  json_object.o [1]
json_object_new_array   0x1f0745b5   0x40  Code  Gb  json_object.o [1]
json_object_new_boolean
                        0x1f0742bd   0x24  Code  Gb  json_object.o [1]
json_object_new_double  0x1f074439   0x32  Code  Gb  json_object.o [1]
json_object_new_int     0x1f074351   0x26  Code  Gb  json_object.o [1]
json_object_new_int64   0x1f0743ed   0x26  Code  Gb  json_object.o [1]
json_object_new_object  0x1f07422b   0x3c  Code  Gb  json_object.o [1]
json_object_new_string  0x1f0744a3   0x3e  Code  Gb  json_object.o [1]
json_object_object_add  0x1f074285   0x22  Code  Gb  json_object.o [1]
json_object_object_delete
                        0x1f074211    0xa  Code  Lc  json_object.o [1]
json_object_object_to_json_string
                        0x1f074167   0x8a  Code  Lc  json_object.o [1]
json_object_put         0x1f07411d   0x10  Code  Gb  json_object.o [1]
json_object_string_delete
                        0x1f074497    0xc  Code  Lc  json_object.o [1]
json_object_string_to_json_string
                        0x1f074471   0x26  Code  Lc  json_object.o [1]
json_object_to_json_string
                        0x1f074133   0x34  Code  Gb  json_object.o [1]
json_parse_int64        0x1f0829e1   0xe0  Code  Gb  json_util.o [1]
json_tokener_parse      0x1f08e3f1   0xba  Code  Gb  json_tokener.o [1]
json_tokener_parse_ex   0x1f08e4ad  0xe58  Code  Gb  json_tokener.o [1]
kitchen_panel_device_report_attribute_update
                        0x1f0659f5  0x2f4  Code  Gb  devicemanager.o [1]
last_check_heartbeat    0x0011de34    0x4  Data  Lc  xlink_net.o [4]
last_utc_time_mico_reference
                        0x0011c408    0x4  Data  Lc  mico_system_time.o [1]
lh_abort                0x1f08265d   0x10  Code  Gb  linkhash.o [1]
lh_char_equal           0x1f082689    0xe  Code  Gb  linkhash.o [1]
lh_char_hash            0x1f08266d   0x1c  Code  Gb  linkhash.o [1]
lh_kchar_table_new      0x1f082697   0x42  Code  Gb  linkhash.o [1]
lh_table_delete         0x1f082937   0x1a  Code  Gb  linkhash.o [1]
lh_table_delete_entry   0x1f082899   0x9e  Code  Gb  linkhash.o [1]
lh_table_free           0x1f082791   0x28  Code  Gb  linkhash.o [1]
lh_table_insert         0x1f0827b9   0x86  Code  Gb  linkhash.o [1]
lh_table_lookup_entry   0x1f08283f   0x5a  Code  Gb  linkhash.o [1]
lh_table_resize         0x1f082701   0x90  Code  Gb  linkhash.o [1]
lib_api_p               0x0011c5f0    0x4  Data  Gb  moc_main.o [1]
linkage_control_add_request
                        0x1f08180d  0x47e  Code  Lc  linkagemanager.o [1]
linkage_control_delete_request
                        0x1f080039  0x1b0  Code  Lc  linkagemanager.o [1]
linkage_control_modify_request
                        0x1f081531  0x278  Code  Lc  linkagemanager.o [1]
linkage_control_update_status_request
                        0x1f07fbf1  0x16e  Code  Gb  linkagemanager.o [1]
linkage_ctrl_delete_request
                        0x1f07fa9d  0x14c  Code  Gb  linkagemanager.o [1]
linkage_ctrl_modify_request
                        0x1f080251  0x73c  Code  Gb  linkagemanager.o [1]
linkage_ctrl_new_add_request
                        0x1f080a81  0x74e  Code  Gb  linkagemanager.o [1]
linkage_ctrl_start_request
                        0x1f07f8ad  0x1aa  Code  Gb  linkagemanager.o [1]
linkage_ctrl_stop_request
                        0x1f07f6b5  0x196  Code  Gb  linkagemanager.o [1]
linkage_deleteFixedMacItem
                        0x1f07fda1  0x272  Code  Gb  linkagemanager.o [1]
linkage_list_request    0x1f07f219  0x42a  Code  Gb  linkagemanager.o [1]
listen                  0x1f08d52f    0xc  Code  Gb  mico_socket.o [1]
lmos                    0x1f08d46c   0x18  Data  Lc  xttotm.o [6]
lnbias                  0x1f08cab8  0x420  Data  Lc  pow.o [8]
loadingTimerTsk         0x1f079ab3  0x1bc  Code  Gb  timer_task.o [1]
localConfig_thread      0x1f0879dd  0x472  Code  Lc  config_server.o [1]
localConfiglistener_thread
                        0x1f0875b9  0x31e  Code  Lc  config_server.o [1]
localeconv              0x1f08bb9f   0x16  Code  Gb  localeconv.o [6]
mDNS_fd                 0x0011c0ec    0x4  Data  Lc  mico_mdns.o [1]
m_currentSystemTime     0x0011d8ce    0xa  Data  Lc  xlink_system.o [4]
m_fd_set                0x0011de38    0x8  Data  Lc  xlink_net.o [4]
m_key                   0x1f098c34   0x20  Data  Gb  xsdk_config.o [4]
m_old_getTime           0x0011de40    0x4  Data  Lc  xlink_system.o [4]
m_pID                   0x0011d8a8   0x24  Data  Gb  xlink_demo.o [1]
m_systemFlag            0x0011df1e    0x1  Data  Lc  xlink_system.o [4]
m_tcp_client            0x0011de44    0x8  Data  Lc  xlink_tcp_client.o [4]
mac_addr                0x0011c9f4   0x20  Data  Lc  user_main.o [1]
mdbbuf                  0x0011d884   0x20  Data  Lc  xlink_demo.o [1]
mdns_add_record         0x1f08a5bf  0x1aa  Code  Gb  mico_mdns.o [1]
mdns_get_record_status  0x1f08a903   0x1a  Code  Gb  mico_mdns.o [1]
mdns_resume_record      0x1f08a879   0x8a  Code  Gb  mico_mdns.o [1]
mdns_send_message       0x1f08a477   0x60  Code  Lc  mico_mdns.o [1]
mdns_suspend_record     0x1f08a7d3   0xa6  Code  Gb  mico_mdns.o [1]
mdns_update_txt_record  0x1f08a769   0x6a  Code  Gb  mico_mdns.o [1]
memchr                  0x1f07b371         Code  Gb  memchr.o [9]
memcpy                  0x1f08da51    0xc  Code  Gb  memcpy.o [6]
memory_dump_Command     0x1f07729b   0x10  Code  Gb  moc_api.o [1]
memory_set_Command      0x1f0772ab   0x10  Code  Gb  moc_api.o [1]
memory_show_Command     0x1f07728b   0x10  Code  Gb  moc_api.o [1]
memp_dump_Command       0x1f0772bb   0x10  Code  Gb  moc_api.o [1]
memset                  0x1f08da3d   0x14  Code  Gb  memset.o [6]
mfi_bonjour_thread_handler
                        0x0011c104    0x4  Data  Lc  mico_mdns.o [1]
micoNotify_ConnectFailedHandler
                        0x1f076343   0x4e  Code  Lc  system_misc.o [1]
micoNotify_DHCPCompleteHandler
                        0x1f0762b1   0x92  Code  Lc  system_misc.o [1]
micoNotify_StackOverflowErrHandler
                        0x1f0763f1   0x56  Code  Lc  system_misc.o [1]
micoNotify_WiFIParaChangedHandler
                        0x1f0765f5  0x104  Code  Lc  system_misc.o [1]
micoNotify_WifiStatusHandler
                        0x1f076447  0x1aa  Code  Lc  system_misc.o [1]
micoNotify_WlanFatalErrHandler
                        0x1f076399   0x58  Code  Lc  system_misc.o [1]
mico_app_info           0x1f076cc9   0x26  Code  Gb  system_misc.o [1]
mico_create_event_fd    0x1f0690a5    0xa  Code  Gb  mico_rtos.o [1]
mico_debug_enabled      0x0011c0e4    0x4  Data  Gb  mico_config.o [1]
mico_deinit_timer       0x1f069091    0xa  Code  Gb  mico_rtos.o [1]
mico_delete_event_fd    0x1f0690af    0xa  Code  Gb  mico_rtos.o [1]
mico_easylink_bonjour_start
                        0x1f0857a1  0x142  Code  Lc  system_easylink.o [1]
mico_get_bootloader_ver
                        0x1f077349    0x6  Code  Gb  moc_api.o [1]
mico_gpio_input_get     0x1f0771ab    0xc  Code  Gb  moc_api.o [1]
mico_hardware_io_worker_thread
                        0x0011c540    0x8  Data  Gb  mico_rtos_common.o [1]
mico_init_timer         0x1f069075    0xc  Code  Gb  mico_rtos.o [1]
mico_is_timer_running   0x1f06909b    0xa  Code  Gb  mico_rtos.o [1]
mico_memory_info        0x1f077327    0xc  Code  Gb  moc_api.o [1]
mico_monitor            0x0011c564    0x8  Data  Lc  mico_system_monitor.o [1]
mico_nanosecond_delay   0x1f091bcf    0x4  Code  Gb  moc_platform_common.o [1]
mico_ota_finished       0x1f08fa5d   0x44  Code  Wk  tftp_ota.o [1]
mico_ota_switch_to_new_fw
                        0x1f06ad9d    0xa  Code  Gb  mico_system_para_storage.o [1]
mico_rtos_create_thread
                        0x1f068fc9   0x14  Code  Gb  mico_rtos.o [1]
mico_rtos_deinit_mutex  0x1f06902d    0x8  Code  Gb  mico_rtos.o [1]
mico_rtos_deinit_queue  0x1f069051    0x8  Code  Gb  mico_rtos.o [1]
mico_rtos_deinit_semaphore
                        0x1f06900d    0x8  Code  Gb  mico_rtos.o [1]
mico_rtos_delay_milliseconds
                        0x1f0690d9    0xe  Code  Gb  mico_rtos.o [1]
mico_rtos_delete_thread
                        0x1f068fdd    0x8  Code  Gb  mico_rtos.o [1]
mico_rtos_get_semaphore
                        0x1f069005    0x8  Code  Gb  mico_rtos.o [1]
mico_rtos_get_time      0x1f0690b9    0x8  Code  Gb  mico_rtos.o [1]
mico_rtos_init          0x1f06b031   0xf8  Code  Gb  mico_rtos_common.o [1]
mico_rtos_init_mutex    0x1f069015    0x8  Code  Gb  mico_rtos.o [1]
mico_rtos_init_queue    0x1f069035    0xc  Code  Gb  mico_rtos.o [1]
mico_rtos_init_semaphore
                        0x1f068ff5    0x8  Code  Gb  mico_rtos.o [1]
mico_rtos_is_queue_empty
                        0x1f069059    0x8  Code  Gb  mico_rtos.o [1]
mico_rtos_is_queue_full
                        0x1f069061   0x14  Code  Gb  mico_rtos.o [1]
mico_rtos_lock_mutex    0x1f06901d    0x8  Code  Gb  mico_rtos.o [1]
mico_rtos_pop_from_queue
                        0x1f069049    0x8  Code  Gb  mico_rtos.o [1]
mico_rtos_push_to_queue
                        0x1f069041    0x8  Code  Gb  mico_rtos.o [1]
mico_rtos_register_timed_event
                        0x1f06b145   0x42  Code  Gb  mico_rtos_common.o [1]
mico_rtos_send_asynchronous_event
                        0x1f06b187   0x18  Code  Gb  mico_rtos_common.o [1]
mico_rtos_set_semaphore
                        0x1f068ffd    0x8  Code  Gb  mico_rtos.o [1]
mico_rtos_stack_overflow
                        0x1f08b1f7   0x1a  Code  Gb  mico_system_notification.o [1]
mico_rtos_thread_force_awake
                        0x1f068fed    0x8  Code  Gb  mico_rtos.o [1]
mico_rtos_thread_join   0x1f068fe5    0x8  Code  Gb  mico_rtos.o [1]
mico_rtos_thread_msleep
                        0x1f06b1c1    0x4  Code  Gb  mico_rtos_common.o [1]
mico_rtos_thread_sleep  0x1f06b1bf    0x2  Code  Gb  mico_rtos_common.o [1]
mico_rtos_unlock_mutex  0x1f069025    0x8  Code  Gb  mico_rtos.o [1]
mico_sdk_version        0x1f076c7f    0xc  Code  Gb  system_misc.o [1]
mico_start_timer        0x1f069081    0x8  Code  Gb  mico_rtos.o [1]
mico_stop_timer         0x1f069089    0x8  Code  Gb  mico_rtos.o [1]
mico_system_context_get
                        0x1f069f6d    0x2  Code  Gb  mico_system_para_storage.o [1]
mico_system_context_get_user_data
                        0x1f069f77    0xe  Code  Gb  mico_system_para_storage.o [1]
mico_system_context_init
                        0x1f069ddb  0x134  Code  Gb  mico_system_para_storage.o [1]
mico_system_context_restore
                        0x1f06a2fd  0x136  Code  Gb  mico_system_para_storage.o [1]
mico_system_context_update
                        0x1f06acc1   0xb8  Code  Gb  mico_system_para_storage.o [1]
mico_system_delegate_config_recv_auth_data
                        0x1f08e093    0x4  Code  Wk  system_easylink_delegate.o [1]
mico_system_delegate_config_recv_ssid
                        0x1f08e055   0x2c  Code  Wk  system_easylink_delegate.o [1]
mico_system_delegate_config_success
                        0x1f0687eb   0x4c  Code  Gb  MICOAppEntrance.o [1]
mico_system_delegate_config_will_start
                        0x1f08e007   0x20  Code  Wk  system_easylink_delegate.o [1]
mico_system_delegate_config_will_stop
                        0x1f08e029   0x22  Code  Wk  system_easylink_delegate.o [1]
mico_system_delegate_soft_ap_will_start
                        0x1f08e027    0x2  Code  Wk  system_easylink_delegate.o [1]
mico_system_init        0x1f075941  0x36a  Code  Gb  mico_system_init.o [1]
mico_system_monitor_daemen_start
                        0x1f085ef3   0xf2  Code  Gb  mico_system_monitor.o [1]
mico_system_monitor_thread_main
                        0x1f085ea5   0x32  Code  Gb  mico_system_monitor.o [1]
mico_system_notify_register
                        0x1f08b211   0x9c  Code  Gb  mico_system_notification.o [1]
mico_system_notify_remove
                        0x1f08b2ad   0xd6  Code  Gb  mico_system_notification.o [1]
mico_system_notify_remove_all
                        0x1f08b383   0x20  Code  Gb  mico_system_notification.o [1]
mico_system_power_perform
                        0x1f07c579   0x84  Code  Gb  mico_system_power_daemon.o [1]
mico_system_wlan_get_status
                        0x1f076c8b   0x10  Code  Gb  system_misc.o [1]
mico_time_get_time      0x1f0690c1   0x18  Code  Gb  mico_rtos.o [1]
mico_time_get_utc_time  0x1f0830b9   0x3c  Code  Gb  mico_system_time.o [1]
mico_time_offset        0x0011c53c    0x4  Data  Lc  mico_rtos.o [1]
mico_time_set_utc_time_ms
                        0x1f0830f5   0x1a  Code  Gb  mico_system_time.o [1]
mico_worker_thread      0x0011c548    0x8  Data  Gb  mico_rtos_common.o [1]
micodebug_Command       0x1f0869a3   0x7e  Code  Lc  mico_cli.o [1]
moc_app_main            0x1f098601   0xe2  Code  Gb  moc_main.o [1]
mos                     0x1f08d484   0x18  Data  Lc  xttotm.o [6]
mxchipInit              0x1f077317   0x10  Code  Gb  moc_api.o [1]
mxchip_timer_inited     0x0011c10c    0x4  Data  Lc  mico_rtos_common.o [1]
ndigs                   0x1f06e1bc   0x28  Data  Lc  xstoul.o [6]
ndigs                   0x1f093d74   0x28  Data  Lc  xstoull.o [6]
needs_update            0x0011c5d0    0x1  Data  Lc  mico_system_power_daemon.o [1]
ns_divisor              0x0011c438    0x4  Data  Lc  platform_nsclock.o [1]
nsclock_nsec            0x0011c428    0x8  Data  Lc  platform_nsclock.o [1]
nsclock_sec             0x0011c430    0x4  Data  Lc  platform_nsclock.o [1]
obuf                    0x0011d938   0x50  Data  Lc  xfiles.o [6]
onClearHTTPHeader       0x1f08805d   0x1a  Code  Lc  config_server.o [1]
onReceivedData          0x1f087e51  0x204  Code  Lc  config_server.o [1]
ota_Command             0x1f086665   0x22  Code  Lc  mico_cli.o [1]
ota_file_md5            0x0011c600   0x80  Data  Lc  OTAupgrade.o [1]
ota_function_thread     0x1f074ca9   0x9c  Code  Gb  xlink_demo.o [1]
ota_partition           0x0011c5f8    0x4  Data  Gb  OTAupgrade.o [1]
pCli                    0x0011c464    0x4  Data  Lc  mico_cli.o [1]
parseServerMessage      0x1f07e281  0x490  Code  Gb  networkserver.o [1]
parse_hex4              0x1f07a669   0xac  Code  Lc  cJSON.o [1]
parse_number            0x1f07a505  0x14c  Code  Lc  cJSON.o [1]
parse_object            0x1f07add7  0x138  Code  Lc  cJSON.o [1]
parse_string            0x1f07a715  0x168  Code  Lc  cJSON.o [1]
parse_value             0x1f07a9f5  0x142  Code  Lc  cJSON.o [1]
parse_zigbee_write_scene_info
                        0x1f06833d  0x188  Code  Gb  devicemanager.o [1]
partShow_Command        0x1f0865d1   0x56  Code  Lc  mico_cli.o [1]
ping_Command            0x1f07724b   0x10  Code  Gb  moc_api.o [1]
pipe1_call              0x1f074809    0xa  Code  Gb  xlink_demo.o [1]
platform_get_cycle_count
                        0x1f095e5d    0x6  Code  Gb  platform_core.o [1]
platform_get_nanosecond_clock_value
                        0x1f0939a5   0x7c  Code  Gb  platform_nsclock.o [1]
platform_init_nanosecond_clock
                        0x1f093a21   0x42  Code  Gb  platform_nsclock.o [1]
platform_nanosecond_delay
                        0x1f093a79   0x22  Code  Gb  platform_nsclock.o [1]
popAppMainRecvMsgThread
                        0x1f078695  0x188  Code  Gb  appmainmsgqueue.o [1]
popAppMainSendMsgThread
                        0x1f078a23   0x58  Code  Gb  appmainmsgqueue.o [1]
popRecvFromFlogCloudMsgThread
                        0x1f078c11   0xc2  Code  Gb  appmainmsgqueue.o [1]
pows                    0x1f096388   0x48  Data  Lc  xdtento.o [8]
prev_cycles             0x0011c434    0x4  Data  Lc  platform_nsclock.o [1]
print_array             0x1f07acad  0x124  Code  Lc  cJSON.o [1]
print_device_infomation
                        0x1f064d0d  0x1fe  Code  Gb  devicemanager.o [1]
print_linkage_list      0x1f081c91  0x3ec  Code  Gb  linkagemanager.o [1]
print_object            0x1f07af25  0x234  Code  Lc  cJSON.o [1]
print_sensor_device_info
                        0x1f073135  0x2e8  Code  Gb  sensormanager.o [1]
print_string_ptr        0x1f07a88d   0xd4  Code  Lc  cJSON.o [1]
print_timer_ctrl_info   0x1f06dbc1  0x1a2  Code  Gb  timercontrol.o [1]
print_value             0x1f07ab3d  0x152  Code  Lc  cJSON.o [1]
printbuf_free           0x1f08263b   0x18  Code  Gb  printbuf.o [1]
printbuf_memappend      0x1f082539   0x4e  Code  Gb  printbuf.o [1]
printbuf_new            0x1f08250d   0x2c  Code  Gb  printbuf.o [1]
printbuf_reset          0x1f082631    0xa  Code  Gb  printbuf.o [1]
printf                  0x1f069109   0x24  Code  Gb  printf.o [6]
process_dns_questions   0x1f089fb9  0x2f6  Code  Gb  mico_mdns.o [1]
ps_enable               0x1f077135    0xc  Code  Gb  moc_api.o [1]
puser_data_in_flash     0x0011c95c    0x4  Data  Gb  user_data_store.o [1]
pushAppMainRecvMsgProcess
                        0x1f0784d5  0x1c0  Code  Gb  appmainmsgqueue.o [1]
pushFlogMsg2FlogCloudQueue
                        0x1f078a7b  0x196  Code  Gb  appmainmsgqueue.o [1]
pushSend2ServerMsgProcess
                        0x1f07881d  0x1d4  Code  Gb  appmainmsgqueue.o [1]
putchar                 0x1f098d1d    0xc  Code  Gb  putchar.o [6]
puts                    0x1f08d6dd   0x3c  Code  Gb  puts.o [6]
rand                    0x1f07a349   0xe0  Code  Gb  rand.o [6]
reCalcTime              0x1f079f01   0x7e  Code  Gb  timer_task.o [1]
read                    0x1f08d5a3    0xc  Code  Gb  mico_socket.o [1]
read_offset             0x0011c5fc    0x4  Data  Gb  OTAupgrade.o [1]
readconfig              0x1f083ce9   0x2e  Code  Lc  xlink_config.o [1]
ready_upgrade           0x1f083127   0xf6  Code  Gb  OTAupgrade.o [1]
reboot                  0x1f086823    0x4  Code  Lc  mico_cli.o [1]
recv                    0x1f08d593   0x10  Code  Gb  mico_socket.o [1]
recvfrom                0x1f08d5af   0x18  Code  Gb  mico_socket.o [1]
remove                  0x1f096f03   0x16  Code  Gb  remove.o [10]
removeDevice            0x1f07d775  0x10a  Code  Lc  networkserver.o [1]
removeInvalidTimerItem  0x1f06b813  0x19c  Code  Gb  timercontrol.o [1]
removeSensorDevice      0x1f07d651  0x11a  Code  Lc  networkserver.o [1]
remove_bonjour_for_easylink
                        0x1f085925    0x4  Code  Lc  system_easylink.o [1]
req_packet              0x1f08f325   0x44  Code  Lc  tftpc.o [1]
request_DeviceState     0x1f08c21b   0x90  Code  Gb  rs485_uart.o [1]
ring_buffer_init        0x1f078151   0x14  Code  Gb  RingBufferUtils.o [1]
rs485_DeviceAllIntegrateStatus
                        0x1f07bb39   0xe8  Code  Gb  rs485sensorparse.o [1]
rs485_DeviceAllIntegrateStatusEx
                        0x1f07ba4f   0xe0  Code  Gb  rs485sensorparse.o [1]
rs485_RequestIRSensorState
                        0x1f08c129   0xec  Code  Gb  rs485_uart.o [1]
rs485_RequestOneNotIRSensorState
                        0x1f08c007  0x114  Code  Gb  rs485_uart.o [1]
rs485_SensorAllIntegrateStatus
                        0x1f07bc31  0x582  Code  Gb  rs485sensorparse.o [1]
rs485_add_device2list   0x1f066919  0x40c  Code  Lc  devicemanager.o [1]
rs485_add_integradedevice2list
                        0x1f066e39  0x556  Code  Lc  devicemanager.o [1]
rs485_add_sensor_device2list
                        0x1f071dd5  0x568  Code  Gb  sensormanager.o [1]
rs485_charchangehex     0x1f078cd3   0xb8  Code  Lc  appmainmsgqueue.o [1]
rs485_date_sendto_parse
                        0x1f08be91   0x8c  Code  Gb  rs485_uart.o [1]
rs485_dev_joined_request
                        0x1f07c8c9   0x5e  Code  Gb  rs485parse.o [1]
rs485_device_delete_from_net
                        0x1f070b11   0x96  Code  Gb  zigbeeparse.o [1]
rs485_device_logout_report
                        0x1f07c927   0xf0  Code  Gb  rs485parse.o [1]
rs485_device_report_state
                        0x1f07c751   0xba  Code  Gb  rs485parse.o [1]
rs485_device_scene_control
                        0x1f069785   0xa6  Code  Gb  timerinterexec.o [1]
rs485_device_single_control
                        0x1f069935   0xb6  Code  Gb  timerinterexec.o [1]
rs485_msg_parse_scene_cluster
                        0x1f07ca17   0x7e  Code  Gb  rs485parse.o [1]
rs485_msg_state_report  0x1f07c811   0xb0  Code  Gb  rs485parse.o [1]
rs485_msg_zcl_zdo       0x1f07cc35  0x216  Code  Gb  rs485parse.o [1]
rs485_new_device_add_report
                        0x1f0676ed  0x1ea  Code  Gb  devicemanager.o [1]
rs485_new_device_joined_success_ack
                        0x1f067501  0x1d4  Code  Gb  devicemanager.o [1]
rs485_parse_write_scene_info
                        0x1f07caa1  0x18e  Code  Gb  rs485parse.o [1]
rs485_request_get_device
                        0x1f08bfcb   0x3c  Code  Gb  rs485_uart.o [1]
rs485_rx_buffer         0x0011c680   0x10  Data  Lc  rs485_uart.o [1]
rs485_rx_data           0x0011c690  0x200  Data  Lc  rs485_uart.o [1]
rs485_scene_handle      0x1f07b995   0xba  Code  Gb  rs485sensorparse.o [1]
rs485_sensor_add_integradedevice2list
                        0x1f0723a9  0x59e  Code  Gb  sensormanager.o [1]
rs485_sensor_device_onoffline_update_flag
                        0x1f06543d  0x10a  Code  Gb  devicemanager.o [1]
rs485_uartInit          0x1f08bbe1   0x9c  Code  Gb  rs485_uart.o [1]
rs485_uartSend          0x1f08bc7d   0x80  Code  Gb  rs485_uart.o [1]
rs485_uart_data_recv    0x1f08bf1d   0xae  Code  Gb  rs485_uart.o [1]
rs485_update_device_state
                        0x1f065253  0x186  Code  Gb  devicemanager.o [1]
rs485data_send_to_queue_parse
                        0x1f07d185   0x4e  Code  Gb  networkserver.o [1]
rs485parseparam         0x0011c894    0xc  Data  Lc  rs485_uart.o [1]
runTask                 0x1f07b81d   0xaa  Code  Gb  timerctrl.o [1]
rx_buffer               0x0011ca14   0x10  Data  Lc  user_uart.o [1]
rx_data                 0x0011ca24  0x400  Data  Lc  user_uart.o [1]
sFileInfo               0x0011d988   0x80  Data  Lc  XShHandles.o [6]
s_apTimerNodes          0x0011c948    0x4  Data  Lc  timerctrl.o [1]
s_mutexTimerNodeLst     0x0011c958    0x4  Data  Lc  timerctrl.o [1]
s_mutexTimerNodes       0x0011c954    0x4  Data  Lc  timerctrl.o [1]
s_nMaxTimerNodes        0x0011c944    0x4  Data  Lc  timerctrl.o [1]
s_tTimerNodeLst         0x0011c900   0x44  Data  Lc  timerctrl.o [1]
save_scenelist_parame   0x1f067df3  0x2e0  Code  Gb  devicemanager.o [1]
scene_devlist_init      0x1f06e66b   0xbc  Code  Gb  user_main.o [1]
scenectrl_flag          0x0011c8b8    0x1  Data  Gb  rs485sensorparse.o [1]
scenepanel_device_report_attribute_update
                        0x1f065d99  0x192  Code  Gb  devicemanager.o [1]
seedNum                 0x0011c5c8    0x4  Data  Lc  mico_system_para_storage.o [1]
select                  0x1f08d547   0x18  Code  Gb  mico_socket.o [1]
send                    0x1f08d55f   0x10  Code  Gb  mico_socket.o [1]
sendMessageToServer     0x1f082c49  0x1e0  Code  Gb  Xlink_PassThroughResolve.o [1]
sendNotifySYSWillPowerOff
                        0x1f08b1b1   0x16  Code  Gb  mico_system_notification.o [1]
send_ConvertFromZigbeeData2Rs485
                        0x1f078d9d   0xc8  Code  Lc  appmainmsgqueue.o [1]
send_user_system_version
                        0x1f07e19d   0xb8  Code  Gb  networkserver.o [1]
sendto                  0x1f08d57b   0x18  Code  Gb  mico_socket.o [1]
sensor_add_default_linkage
                        0x1f071621  0x10a  Code  Lc  sensormanager.o [1]
sensor_add_ir_lightray_default_linkage
                        0x1f0713ed  0x104  Code  Lc  sensormanager.o [1]
sensor_attribute_report
                        0x1f072fb3  0x13e  Code  Gb  sensormanager.o [1]
sensor_device_reset_init
                        0x1f07134d   0xa0  Code  Gb  sensormanager.o [1]
sensor_ir_delayTurnOffCb
                        0x1f06e4af   0xf0  Code  Lc  user_main.o [1]
sensor_ir_timerStart    0x1f06e5bb   0x24  Code  Gb  user_main.o [1]
sensor_ir_timerStop     0x1f06e5a5   0x16  Code  Gb  user_main.o [1]
sensor_linkage_control_device
                        0x1f06452f  0x1a6  Code  Gb  devicemanager.o [1]
sensor_linkage_init     0x1f07b959   0x1e  Code  Gb  rs485sensorparse.o [1]
sensor_linkage_turnon_light_device
                        0x1f0646db  0x2a0  Code  Gb  devicemanager.o [1]
server_tcp_send_time_out
                        0x0011d6e8    0x4  Data  Lc  xlink_demo.o [1]
setMacAddress           0x1f06e1eb    0x8  Code  Gb  user_main.o [1]
setOtaFileMd5Str        0x1f083115   0x10  Code  Gb  OTAupgrade.o [1]
setTaskFlag             0x1f079c6f   0x40  Code  Gb  timer_task.o [1]
setTimerInterval        0x1f07b7d5   0x48  Code  Gb  timerctrl.o [1]
setTimerNodeParam       0x1f07b60b   0x6c  Code  Gb  timerctrl.o [1]
setTimerStatus          0x1f07b6d9   0xfc  Code  Gb  timerctrl.o [1]
set_broadcast_flag      0x1f0746ed    0x8  Code  Gb  xlink_demo.o [1]
setsockopt              0x1f08d501   0x16  Code  Gb  mico_socket.o [1]
sig_func1sec            0x1f07b439   0xb8  Code  Gb  timerctrl.o [1]
snprintf                0x1f08956d   0x44  Code  Gb  snprintf.o [6]
socket                  0x1f08d4f5    0xc  Code  Gb  mico_socket.o [1]
socket_connected        0x1f08b179   0x1a  Code  Gb  mico_system_notification.o [1]
socket_show_Command     0x1f07727b   0x10  Code  Gb  moc_api.o [1]
source                  0x0011c8d2    0x1  Data  Lc  system_easylink.o [1]
sprintbuf               0x1f0825d3   0x56  Code  Gb  printbuf.o [1]
sprintf                 0x1f073b71   0x34  Code  Gb  sprintf.o [6]
srand                   0x1f07a329   0x20  Code  Gb  srand.o [6]
sscanf                  0x1f08d089   0x24  Code  Gb  sscanf.o [6]
start_bonjour_service   0x1f08aac9  0x25c  Code  Lc  mico_mdns.o [1]
stdio_tx_mutex          0x0011c5f4    0x4  Data  Gb  moc_main.o [1]
str2hex                 0x1f089723   0x70  Code  Gb  StringUtils.o [1]
strcasecmp              0x1f090499   0x46  Code  Gb  strcasecmp.o [6]
strchr                  0x1f08b47d         Code  Gb  strchr.o [9]
strdup                  0x1f0829a9   0x18  Code  Gb  strdup.o [6]
strlen                  0x1f0781b1         Code  Gb  strlen.o [9]
strncasecmp             0x1f0935d5   0x4e  Code  Gb  strncasecmp.o [6]
strncmp                 0x1f073731   0x2a  Code  Gb  strncmp.o [6]
strnicmp                0x1f0898b9   0x3c  Code  Gb  StringUtils.o [1]
strnicmp_suffix         0x1f089f4f   0x2a  Code  Gb  StringUtils.o [1]
strnicmpx               0x1f0898fb   0x40  Code  Gb  StringUtils.o [1]
strnlen                 0x1f091ae5   0x16  Code  Gb  strnlen.o [6]
subdevice_clear_invalid_record
                        0x1f064491   0x9e  Code  Gb  devicemanager.o [1]
switch_active_firmware  0x1f077365    0xa  Code  Gb  moc_api.o [1]
sys_context             0x0011c5cc    0x4  Data  Gb  mico_system_para_storage.o [1]
system_config_mode_worker
                        0x1f07588d   0xae  Code  Lc  mico_system_init.o [1]
system_connect_wifi_fast
                        0x1f0769b1   0xee  Code  Gb  system_misc.o [1]
system_connect_wifi_normal
                        0x1f0768d7   0xd6  Code  Gb  system_misc.o [1]
system_context          0x1f0762a9    0x8  Code  Gb  system_misc.o [1]
system_discovery_init   0x1f087115  0x206  Code  Gb  system_discovery.o [1]
system_easylink_start   0x1f084b35  0x136  Code  Gb  system_easylink.o [1]
system_lib_version      0x1f077333    0xa  Code  Gb  moc_api.o [1]
system_monitors         0x0011c550   0x14  Data  Lc  mico_system_monitor.o [1]
system_network_daemen_start
                        0x1f076a9f  0x1e0  Code  Gb  system_misc.o [1]
system_notification_init
                        0x1f0766f9  0x1de  Code  Gb  system_misc.o [1]
tab_complete            0x1f0862a1   0xb6  Code  Lc  mico_cli.o [1]
targtime                0x0011d778    0x4  Data  Gb  xlink_demo.o [1]
taskLock                0x0011c8fc    0x4  Data  Lc  timer_task.o [1]
task_Command            0x1f07726b   0x10  Code  Gb  moc_api.o [1]
tcp_m_id                0x0011df0e    0x2  Data  Gb  Xlink_PassThroughResolve.o [1]
tcp_send_sta_mutex      0x0011d6f0    0x4  Data  Lc  xlink_demo.o [1]
tcp_timer               0x0011de4c    0x8  Data  Lc  xlink_tcp_client.o [4]
temptime.7741           0x0011df10    0xa  Data  Lc  xlink_process_tcp_data.o [4]
tftp_Command            0x1f0864cd   0xfe  Code  Lc  mico_cli.o [1]
tftp_ota                0x1f08fab3  0x5c0  Code  Gb  tftp_ota.o [1]
tftp_ota_thread         0x1f086655   0x10  Code  Gb  mico_cli.o [1]
tget                    0x1f08f70b  0x204  Code  Gb  tftpc.o [1]
time_callback           0x1f074abf  0x104  Code  Lc  xlink_demo.o [1]
timed_event_handler     0x1f06b1a1   0x14  Code  Lc  mico_rtos_common.o [1]
timeoutal.7819          0x0011de54    0x8  Data  Lc  xlink_net.o [4]
timer_control_add_request
                        0x1f06d869  0x34a  Code  Lc  timercontrol.o [1]
timer_control_delete_request
                        0x1f06c4e1  0x15c  Code  Lc  timercontrol.o [1]
timer_control_init      0x1f06e5e7   0x84  Code  Gb  user_main.o [1]
timer_control_modify_request
                        0x1f06d5dd  0x286  Code  Lc  timercontrol.o [1]
timer_control_update_status_request
                        0x1f06c27f  0x1bc  Code  Gb  timercontrol.o [1]
timer_ctrl_delete_request
                        0x1f06c131  0x148  Code  Gb  timercontrol.o [1]
timer_ctrl_modify_request
                        0x1f06c6a5  0x5ba  Code  Gb  timercontrol.o [1]
timer_ctrl_new_add_request
                        0x1f06ccd9  0x55a  Code  Gb  timercontrol.o [1]
timer_ctrl_start_request
                        0x1f06bf7d  0x1ae  Code  Gb  timercontrol.o [1]
timer_ctrl_stop_request
                        0x1f06bdc9  0x19c  Code  Gb  timercontrol.o [1]
timer_head              0x0011c108    0x4  Data  Gb  mico_rtos_common.o [1]
timer_list_request      0x1f06b9b1  0x396  Code  Gb  timercontrol.o [1]
timer_scene_control     0x1f069afd   0xaa  Code  Gb  timerinterexec.o [1]
timer_sem               0x0011c114    0x4  Data  Lc  mico_rtos_common.o [1]
timer_single_control    0x1f0699f9   0xfa  Code  Gb  timerinterexec.o [1]
timer_thread_func       0x1f06b269   0x78  Code  Lc  mico_rtos_common.o [1]
timer_thread_wait       0x0011c110    0x4  Data  Lc  mico_rtos_common.o [1]
timerarray              0x0011c960   0x90  Data  Lc  user_main.o [1]
timerctrl_func_exec_start
                        0x1f07b3d5   0x60  Code  Lc  timerctrl.o [1]
tolower                 0x1f07b35d   0x14  Code  Gb  tolower.o [6]
tsend                   0x1f08f369  0x39a  Code  Gb  tftpc.o [1]
tskHead                 0x0011c8f8    0x4  Data  Gb  timer_task.o [1]
uap_stop                0x1f0770f9    0xc  Code  Gb  moc_api.o [1]
uart_idle_irq_sem       0x0011c890    0x4  Data  Gb  rs485_uart.o [1]
uart_recv_thread        0x1f078e6b  0x100  Code  Lc  appmainmsgqueue.o [1]
uart_zigbee_msg_dispatch
                        0x1f0706c1  0x232  Code  Gb  zigbeeparse.o [1]
uart_zigbee_msg_insertinto_queue
                        0x1f0708f9  0x126  Code  Gb  zigbeeparse.o [1]
uart_zigbee_msg_recv    0x1f070bc7   0x30  Code  Gb  zigbeeparse.o [1]
uart_zigbee_msg_recv_queue
                        0x0011d8e0    0x4  Data  Lc  zigbeeparse.o [1]
uart_zigbee_msg_recv_queue_mutex
                        0x0011d8e4    0x4  Data  Lc  zigbeeparse.o [1]
uart_zigbee_queue_init  0x1f070ba7   0x20  Code  Gb  zigbeeparse.o [1]
uart_zigbee_recv_start  0x1f070c71  0x17e  Code  Gb  zigbeeparse.o [1]
udpPipeIndex            0x0011df1f    0x1  Data  Lc  xlink_process_udp_data.o [4]
udp_m_id                0x0011df0c    0x2  Data  Gb  Xlink_PassThroughResolve.o [1]
udp_pipe_call           0x1f074813    0xc  Code  Lc  xlink_demo.o [1]
upMd5IsOk               0x0011d76e    0x1  Data  Lc  xlink_demo.o [1]
update_device_state     0x1f065851  0x16a  Code  Gb  devicemanager.o [1]
update_state_fd         0x0011c0f8    0x4  Data  Lc  mico_mdns.o [1]
update_state_sem        0x0011c0f4    0x4  Data  Lc  mico_mdns.o [1]
upgrade_done            0x1f083317   0x60  Code  Gb  OTAupgrade.o [1]
upgrade_process         0x1f08321d   0xfa  Code  Gb  OTAupgrade.o [1]
upgrade_task            0x1f074d45   0xf0  Code  Gb  xlink_demo.o [1]
uptime_Command          0x1f086627   0x2e  Code  Lc  mico_cli.o [1]
urlbuf                  0x0011d784  0x100  Data  Lc  xlink_demo.o [1]
userDataStoreInit       0x1f06b3f1   0x76  Code  Gb  user_data_store.o [1]
user_application        0x1f06e727  0x196  Code  Gb  user_main.o [1]
user_clis               0x1f087108    0xc  Data  Lc  mico_cli.o [1]
user_config             0x0011d6f4   0x70  Data  Gb  xlink_demo.o [1]
user_data_flash_write_process
                        0x1f06b467   0xc2  Code  Lc  user_data_store.o [1]
user_data_store_update  0x1f06b529   0x6a  Code  Gb  user_data_store.o [1]
user_handler            0x1f064000   0x74  Data  Gb  moc_main.o [1]
user_uartInit           0x1f069167   0x86  Code  Gb  user_uart.o [1]
user_uartSend           0x1f0691ed   0xfa  Code  Gb  user_uart.o [1]
utf8_replacement_char   0x0011c0dc    0x4  Data  Lc  json_tokener.o [1]
vasprintf               0x1f082587   0x40  Code  Gb  printbuf.o [1]
vprintf                 0x1f08d06d   0x18  Code  Gb  vprintf.o [6]
vsnprintf               0x1f08d005   0x3c  Code  Gb  vsnprint.o [6]
vsprintf                0x1f08d041   0x2c  Code  Gb  vsprintf.o [6]
wifi_config_net_sem     0x0011c9f0    0x4  Data  Gb  user_main.o [1]
wifi_config_press_irq_cb
                        0x1f06e283    0x8  Code  Gb  user_main.o [1]
wifi_connect_sta_mutex  0x0011d6ec    0x4  Data  Gb  xlink_demo.o [1]
wifi_key_button_press_callback
                        0x1f06e26f   0x14  Code  Lc  user_main.o [1]
wifi_keybutton_press    0x1f06e1f3   0x7c  Code  Gb  user_main.o [1]
wifi_led_onoff          0x1f073939  0x122  Code  Gb  wifi_led.o [1]
wifi_led_quick_glitter_start
                        0x1f07385b   0x5c  Code  Gb  wifi_led.o [1]
wifi_led_slow_glitter_start
                        0x1f0737fd   0x5e  Code  Gb  wifi_led.o [1]
wifi_lighten_led_color  0x1f068761   0x66  Code  Gb  MICOAppEntrance.o [1]
wifi_ota_glitter_start  0x1f0738d3   0x5e  Code  Gb  wifi_led.o [1]
wifi_power_down         0x1f0770d5    0xc  Code  Gb  moc_api.o [1]
wifi_power_up           0x1f0770e1    0xc  Code  Gb  moc_api.o [1]
wifi_reboot_event       0x1f08b1e1   0x16  Code  Gb  mico_system_notification.o [1]
wifi_up                 0x0011c8f4    0x4  Data  Lc  tftp_ota.o [1]
wifidebug_Command       0x1f07720b   0x10  Code  Gb  moc_api.o [1]
wifiscan_Command        0x1f07721b   0x10  Code  Gb  moc_api.o [1]
wifistate_Command       0x1f0771fb   0x10  Code  Gb  moc_api.o [1]
wlan_disconnect         0x1f0770ed    0xc  Code  Gb  moc_api.o [1]
wlan_driver_version     0x1f0772db    0xc  Code  Gb  moc_api.o [1]
wlan_get_mac_address    0x1f0772e7    0xc  Code  Gb  moc_api.o [1]
worker_thread_main      0x1f06b129   0x1c  Code  Lc  mico_rtos_common.o [1]
write                   0x1f08d56f    0xc  Code  Gb  mico_socket.o [1]
write_scene_info        0x1f0681bd  0x17a  Code  Gb  devicemanager.o [1]
writeconfig             0x1f083cb1   0x38  Code  Lc  xlink_config.o [1]
xlinkClientReSet        0x1f096d9d   0x2c  Code  Gb  xlink_client.o [4]
xlinkConfigInit         0x1f083c99   0x18  Code  Gb  xlink_config.o [1]
xlinkGetHostByName      0x1f08d631   0xac  Code  Gb  xlink_net.o [4]
xlinkGetMd5             0x1f092f3d   0x48  Code  Gb  xlink_md5.o [4]
xlinkHttpLoop           0x1f083633  0x230  Code  Lc  xlinkHttp.o [1]
xlinkHttpMd5Init        0x1f08d4c9   0x2c  Code  Gb  xlink_md5.o [4]
xlinkHttpStartDownFile  0x1f08350d  0x120  Code  Gb  xlinkHttp.o [1]
xlinkSendRetPWDPackage  0x1f097045   0x74  Code  Lc  xlink_process_tcp_data.o [4]
xlinkSendRetPackage     0x1f096d5d   0x3e  Code  Lc  xlink_process_udp_data.o [4]
xlink_GetServerTime     0x1f094885   0x7c  Code  Gb  xlink_tcp_client.o [4]
xlink_call_reboot       0x1f082bf1   0x58  Code  Gb  Xlink_PassThroughResolve.o [1]
xlink_config_mutex      0x0011d230    0x4  Data  Lc  xlink_config.o [1]
xlink_demo_init         0x1f07481f    0xe  Code  Gb  xlink_demo.o [1]
xlink_demo_work_init    0x1f074e47  0x1d0  Code  Lc  xlink_demo.o [1]
xlink_domain_loop       0x1f07509f  0x108  Code  Gb  xlink_demo.o [1]
xlink_event             0x0011de5c    0x4  Data  Lc  xlink_net.o [4]
xlink_function_thread   0x1f07506d   0x32  Code  Gb  xlink_demo.o [1]
xlink_net_loop          0x1f08da5d  0x294  Code  Gb  xlink_net.o [4]
xlink_net_loop_Domain_name
                        0x1f08dcf1  0x310  Code  Gb  xlink_net.o [4]
xlink_net_setSystemTime
                        0x1f0970c5   0x78  Code  Gb  xlink_system.o [4]
xlink_notify_cb         0x1f074e45    0x2  Code  Gb  xlink_demo.o [1]
xlink_process_set_pwd   0x1f0966b9   0xf0  Code  Gb  xlink_process_tcp_data.o [4]
xlink_process_tcp_data  0x1f094ac9  0x858  Code  Gb  xlink_process_tcp_data.o [4]
xlink_process_tcp_event_res
                        0x1f0968cd   0x70  Code  Gb  xlink_process_tcp_data.o [4]
xlink_process_tcp_notify
                        0x1f09693d   0x30  Code  Gb  xlink_process_tcp_data.o [4]
xlink_process_tcp_probe_V2
                        0x1f0967a9  0x124  Code  Lc  xlink_process_tcp_data.o [4]
xlink_recvDtatBufer.7737
                        0x0011df20  0x432  Data  Lc  xlink_net.o [4]
xlink_start_flag        0x0011d8cc    0x1  Data  Gb  xlink_demo.o [1]
xlink_tcp_send_upgrade  0x1f083e45   0xa0  Code  Gb  xlink_tcp_client.o [4]
xlinkhttpErrorCallBack_t
                        0x1f074c0d   0x9c  Code  Gb  xlink_demo.o [1]
xlinkhttpRecvDataCallBack_t
                        0x1f074bc5   0x46  Code  Gb  xlink_demo.o [1]
xlinkhttpStaCallBack_t  0x1f074bc3    0x2  Code  Gb  xlink_demo.o [1]
xsdk_closeTCP           0x1f09310d   0x58  Code  Gb  xlink_net.o [4]
xsdk_closeUDP           0x1f0930f5   0x18  Code  Gb  xlink_net.o [4]
xsdk_config_init        0x1f08d719  0x1fc  Code  Gb  xsdk_config.o [4]
xsdk_config_save        0x1f083fc1  0x148  Code  Gb  xsdk_config.o [4]
xsdk_flash              0x0011de60   0xac  Data  Lc  xsdk_config.o [4]
xsdk_read_config        0x1f092f85   0xac  Code  Gb  xsdk_config.o [4]
xsdk_tiemr_timerout     0x1f094911   0x24  Code  Gb  xsdk_config.o [4]
xsdk_timer_set          0x1f094901   0x10  Code  Gb  xsdk_config.o [4]
xsdk_write_config       0x1f083ee5   0xdc  Code  Gb  xsdk_config.o [4]
zigbee_add_sensor_device2list
                        0x1f071879  0x49c  Code  Gb  sensormanager.o [1]
zigbee_airchange_delayTurnOffCb
                        0x1f06e28b   0x28  Code  Lc  user_main.o [1]
zigbee_airchange_timerStart
                        0x1f06e2cb   0x18  Code  Gb  user_main.o [1]
zigbee_airchange_timerStop
                        0x1f06e2b3   0x18  Code  Gb  user_main.o [1]
zigbee_check_ir_lightray_linakge_ctrl_condistions
                        0x1f07ea95  0x10c  Code  Gb  linkagemanager.o [1]
zigbee_check_linakge_airchange_ctrl_condistions
                        0x1f07e98d  0x108  Code  Gb  linkagemanager.o [1]
zigbee_create_net       0x1f070a25   0x64  Code  Gb  zigbeeparse.o [1]
zigbee_device_delete_from_net
                        0x1f070a89   0x7e  Code  Gb  zigbeeparse.o [1]
zigbee_init             0x1f070bf7   0x5e  Code  Gb  zigbeeparse.o [1]
zigbee_ir_lightray_delayTurnOffCb
                        0x1f06e2e3  0x14e  Code  Lc  user_main.o [1]
zigbee_ir_lightray_timerStart
                        0x1f06e451   0x26  Code  Gb  user_main.o [1]
zigbee_ir_lightray_timerStop
                        0x1f06e431   0x18  Code  Gb  user_main.o [1]
zigbee_msg_attribute_state_report
                        0x1f06edd5  0x12a  Code  Lc  zigbeeparse.o [1]
zigbee_msg_change_coordinator_channel
                        0x1f06f50d   0xe2  Code  Lc  zigbeeparse.o [1]
zigbee_msg_change_dev_channel
                        0x1f06f40d   0xf4  Code  Lc  zigbeeparse.o [1]
zigbee_msg_clear_device_info
                        0x1f0705f1   0xca  Code  Lc  zigbeeparse.o [1]
zigbee_msg_config_network
                        0x1f06f019   0xf4  Code  Lc  zigbeeparse.o [1]
zigbee_msg_delete_dev_joined
                        0x1f06f30f   0xf4  Code  Lc  zigbeeparse.o [1]
zigbee_msg_dev_joined_request
                        0x1f06f221   0xe0  Code  Lc  zigbeeparse.o [1]
zigbee_msg_dev_quit_joined
                        0x1f06fabd  0x1a6  Code  Lc  zigbeeparse.o [1]
zigbee_msg_dev_request_mac_addr
                        0x1f06ff0d  0x18a  Code  Lc  zigbeeparse.o [1]
zigbee_msg_dev_request_net_addr
                        0x1f06fd71  0x194  Code  Lc  zigbeeparse.o [1]
zigbee_msg_device_state_resp
                        0x1f070271  0x144  Code  Lc  zigbeeparse.o [1]
zigbee_msg_endpoint_state
                        0x1f06f869  0x1fc  Code  Lc  zigbeeparse.o [1]
zigbee_msg_invalid      0x1f06ef05   0xde  Code  Lc  zigbeeparse.o [1]
zigbee_msg_request_net_id
                        0x1f06eb8b  0x21c  Code  Lc  zigbeeparse.o [1]
zigbee_msg_send_error_code
                        0x1f06fcb1   0xc0  Code  Lc  zigbeeparse.o [1]
zigbee_msg_set_coordinator_channel
                        0x1f06f5f9   0xe2  Code  Lc  zigbeeparse.o [1]
zigbee_msg_set_dev_join_allow
                        0x1f06f119   0xf2  Code  Lc  zigbeeparse.o [1]
zigbee_msg_stack_info   0x1f06f6e5  0x138  Code  Lc  zigbeeparse.o [1]
zigbee_msg_zcl_zdo      0x1f0703e1  0x1b0  Code  Lc  zigbeeparse.o [1]
zigbee_new_device_add_report
                        0x1f0664dd  0x350  Code  Gb  devicemanager.o [1]
zigbee_parser_scene_cluster_msg
                        0x1f07012d  0x120  Code  Lc  zigbeeparse.o [1]
zigbee_send_airchange_control
                        0x1f0698af   0x7a  Code  Gb  timerinterexec.o [1]
zigbee_send_light_single_control
                        0x1f06982b   0x84  Code  Gb  timerinterexec.o [1]
zigbee_send_scene_control
                        0x1f069739   0x4c  Code  Gb  timerinterexec.o [1]
zigbee_sensor_linkage_control_airchange
                        0x1f064075  0x1bc  Code  Gb  devicemanager.o [1]
zigbee_sensor_linkage_param_init
                        0x1f071231   0x92  Code  Gb  sensormanager.o [1]
zigbee_sensor_linkage_turnon_light_device
                        0x1f064261  0x1d8  Code  Gb  devicemanager.o [1]
zigbee_sensor_new_device_add_report
                        0x1f072a81  0x52a  Code  Gb  sensormanager.o [1]


[1] = E:\MiCO_B_v3.2.3-1\Projects\MW3xx\demo\EWARM\MK3031\Obj
[2] = command line
[3] = Lib_MFi_WAC.Cortex-M4F.IAR.release.a
[4] = Lib_xlink_app_v34700.Cortex-M4.GCC.release.a
[5] = MiCODriverMFiAuth.a
[6] = dl7M_tlf.a
[7] = libairkiss.a
[8] = m7M_tls.a
[9] = rt7M_tl.a
[10] = shb_l.a

  209 820 bytes of readonly  code memory
    6 978 bytes of readonly  data memory
    9 046 bytes of readwrite data memory

Errors: none
Warnings: 4
